
boot-loader-serial.elf:     file format elf32-littlearm


Disassembly of section .start:

00000000 <start>:
   0:	ea000006 	b	20 <startup>
   4:	ea000400 	b	100c <_testfail>
   8:	ea0003ff 	b	100c <_testfail>
   c:	ea0003fe 	b	100c <_testfail>
  10:	ea0003fd 	b	100c <_testfail>
  14:	ea0003fc 	b	100c <_testfail>
  18:	ea0003fb 	b	100c <_testfail>
  1c:	ea0003fa 	b	100c <_testfail>

00000020 <startup>:
  20:	e3a00003 	mov	r0, #3
  24:	e13ff000 	teq	pc, r0
  28:	e3e00000 	mvn	r0, #0
  2c:	ee030f10 	mcr	15, 0, r0, cr3, cr0, {0}
  30:	e3a00001 	mov	r0, #1
  34:	ee020f10 	mcr	15, 0, r0, cr2, cr0, {0}
  38:	e59fd0a4 	ldr	sp, [pc, #164]	; e4 <AdrStack>
  3c:	e59f00a4 	ldr	r0, [pc, #164]	; e8 <AdrMemCtrl>
  40:	e3a01001 	mov	r1, #1
  44:	e5801000 	str	r1, [r0]
  48:	eb00064c 	bl	1980 <main>

0000004c <_jump_to_program>:
  4c:	e59f1118 	ldr	r1, [pc, #280]	; 16c <AdrBootParams>
  50:	e59f20b8 	ldr	r2, [pc, #184]	; 110 <AdrATAGBase>
  54:	e59f30b8 	ldr	r3, [pc, #184]	; 114 <AdeEndATAG>
  58:	e1520003 	cmp	r2, r3
  5c:	0a000002 	beq	6c <_jump_to_program+0x20>
  60:	e4924004 	ldr	r4, [r2], #4
  64:	e4814004 	str	r4, [r1], #4
  68:	eafffffa 	b	58 <_jump_to_program+0xc>
  6c:	e59f20fc 	ldr	r2, [pc, #252]	; 170 <AdrPageTabes>
  70:	e3a03000 	mov	r3, #0
  74:	e3a04028 	mov	r4, #40	; 0x28
  78:	e4823004 	str	r3, [r2], #4
  7c:	e2544001 	subs	r4, r4, #1
  80:	1afffffc 	bne	78 <_jump_to_program+0x2c>
  84:	e1a04000 	mov	r4, r0
  88:	e38443c3 	orr	r4, r4, #201326595	; 0xc000003
  8c:	e3a00000 	mov	r0, #0
  90:	e1a0f004 	mov	pc, r4

00000094 <_core_status>:
  94:	e92d4000 	stmfd	sp!, {lr}
  98:	e92d1fff 	push	{r0, r1, r2, r3, r4, r5, r6, r7, r8, r9, sl, fp, ip}
  9c:	e3a04000 	mov	r4, #0
  a0:	e1a0500d 	mov	r5, sp
  a4:	e1a0600e 	mov	r6, lr
  a8:	e59f00c4 	ldr	r0, [pc, #196]	; 174 <AdrPageTabes+0x4>
  ac:	e1a01004 	mov	r1, r4
  b0:	e4952004 	ldr	r2, [r5], #4
  b4:	eb0003c8 	bl	fdc <printf>
  b8:	e354000d 	cmp	r4, #13
  bc:	12844001 	addne	r4, r4, #1
  c0:	1afffff8 	bne	a8 <_core_status+0x14>
  c4:	e59f00ac 	ldr	r0, [pc, #172]	; 178 <AdrPageTabes+0x8>
  c8:	e1a0100d 	mov	r1, sp
  cc:	eb0003c2 	bl	fdc <printf>
  d0:	e59f00a4 	ldr	r0, [pc, #164]	; 17c <AdrPageTabes+0xc>
  d4:	e2461004 	sub	r1, r6, #4
  d8:	eb0003bf 	bl	fdc <printf>
  dc:	e8bd1fff 	pop	{r0, r1, r2, r3, r4, r5, r6, r7, r8, r9, sl, fp, ip}
  e0:	e8fd8000 	ldm	sp!, {pc}^

000000e4 <AdrStack>:
  e4:	02000000 	.word	0x02000000

000000e8 <AdrMemCtrl>:
  e8:	f0000020 	.word	0xf0000020

000000ec <Status_Message>:
  ec:	64322572 	.word	0x64322572
  f0:	30252020 	.word	0x30252020
  f4:	000a7838 	.word	0x000a7838

000000f8 <SPStatus_Message>:
  f8:	20207073 	.word	0x20207073
  fc:	38302520 	.word	0x38302520
 100:	0a78      	.short	0x0a78
	...

00000103 <PCStatus_Message>:
 103:	70          	.byte	0x70
 104:	20202063 	.word	0x20202063
 108:	78383025 	.word	0x78383025
 10c:	000a      	.short	0x000a
	...

00000110 <AdrATAGBase>:
 110:	00000118 	andeq	r0, r0, r8, lsl r1

00000114 <AdeEndATAG>:
 114:	00000168 	andeq	r0, r0, r8, ror #2

00000118 <ATAGBase>:
 118:	00000005 	andeq	r0, r0, r5
 11c:	54410001 	strbpl	r0, [r1], #-1
 120:	00000001 	andeq	r0, r0, r1
 124:	00001000 	andeq	r1, r0, r0
 128:	00000000 	andeq	r0, r0, r0
 12c:	00000004 	andeq	r0, r0, r4
 130:	54410002 	strbpl	r0, [r1], #-2
 134:	02000000 	andeq	r0, r0, #0
 138:	00000000 	andeq	r0, r0, r0
 13c:	00000005 	andeq	r0, r0, r5
 140:	54410004 	strbpl	r0, [r1], #-4
 144:	00000001 	andeq	r0, r0, r1
 148:	000000d0 	ldrdeq	r0, [r0], -r0	; <UNPREDICTABLE>
 14c:	00800000 	addeq	r0, r0, r0
 150:	00000004 	andeq	r0, r0, r4
 154:	54410005 	strbpl	r0, [r1], #-5
 158:	02800000 	addeq	r0, r0, #0
 15c:	00032000 	andeq	r2, r3, r0
	...

00000168 <EndATAG>:
 168:	00000000 	andeq	r0, r0, r0

0000016c <AdrBootParams>:
 16c:	0007c000 	andeq	ip, r7, r0

00000170 <AdrPageTabes>:
 170:	03f01000 	mvnseq	r1, #0
 174:	000000ec 	andeq	r0, r0, ip, ror #1
 178:	000000f8 	strdeq	r0, [r0], -r8
 17c:	00000103 	andeq	r0, r0, r3, lsl #2

Disassembly of section .text:

00000180 <printm>:
     180:	e1a01000 	mov	r1, r0
     184:	e59f0004 	ldr	r0, [pc, #4]	; 190 <printm+0x10>
     188:	e5912000 	ldr	r2, [r1]
     18c:	ea000392 	b	fdc <printf>
     190:	00001d24 	.word	0x00001d24

00000194 <print_spaces>:
     194:	e92d4010 	push	{r4, lr}
     198:	e1a04000 	mov	r4, r0
     19c:	e3540000 	cmp	r4, #0
     1a0:	0a000003 	beq	1b4 <print_spaces+0x20>
     1a4:	e59f000c 	ldr	r0, [pc, #12]	; 1b8 <print_spaces+0x24>
     1a8:	eb00038b 	bl	fdc <printf>
     1ac:	e2444001 	sub	r4, r4, #1
     1b0:	eafffff9 	b	19c <print_spaces+0x8>
     1b4:	e8bd8010 	pop	{r4, pc}
     1b8:	00001f25 	.word	0x00001f25

000001bc <print_help>:
     1bc:	e92d4008 	push	{r3, lr}
     1c0:	e59f00cc 	ldr	r0, [pc, #204]	; 294 <print_help+0xd8>
     1c4:	eb000384 	bl	fdc <printf>
     1c8:	e59f00c8 	ldr	r0, [pc, #200]	; 298 <print_help+0xdc>
     1cc:	eb000382 	bl	fdc <printf>
     1d0:	e3a0001d 	mov	r0, #29
     1d4:	ebffffee 	bl	194 <print_spaces>
     1d8:	e59f00bc 	ldr	r0, [pc, #188]	; 29c <print_help+0xe0>
     1dc:	eb00037e 	bl	fdc <printf>
     1e0:	e59f00b8 	ldr	r0, [pc, #184]	; 2a0 <print_help+0xe4>
     1e4:	eb00037c 	bl	fdc <printf>
     1e8:	e3a00013 	mov	r0, #19
     1ec:	ebffffe8 	bl	194 <print_spaces>
     1f0:	e59f00ac 	ldr	r0, [pc, #172]	; 2a4 <print_help+0xe8>
     1f4:	eb000378 	bl	fdc <printf>
     1f8:	e59f00a8 	ldr	r0, [pc, #168]	; 2a8 <print_help+0xec>
     1fc:	eb000376 	bl	fdc <printf>
     200:	e59f00a4 	ldr	r0, [pc, #164]	; 2ac <print_help+0xf0>
     204:	eb000374 	bl	fdc <printf>
     208:	e3a0001d 	mov	r0, #29
     20c:	ebffffe0 	bl	194 <print_spaces>
     210:	e59f0098 	ldr	r0, [pc, #152]	; 2b0 <print_help+0xf4>
     214:	eb000370 	bl	fdc <printf>
     218:	e59f0094 	ldr	r0, [pc, #148]	; 2b4 <print_help+0xf8>
     21c:	eb00036e 	bl	fdc <printf>
     220:	e3a00013 	mov	r0, #19
     224:	ebffffda 	bl	194 <print_spaces>
     228:	e59f0088 	ldr	r0, [pc, #136]	; 2b8 <print_help+0xfc>
     22c:	eb00036a 	bl	fdc <printf>
     230:	e59f0084 	ldr	r0, [pc, #132]	; 2bc <print_help+0x100>
     234:	eb000368 	bl	fdc <printf>
     238:	e3a00013 	mov	r0, #19
     23c:	ebffffd4 	bl	194 <print_spaces>
     240:	e59f0078 	ldr	r0, [pc, #120]	; 2c0 <print_help+0x104>
     244:	eb000364 	bl	fdc <printf>
     248:	e59f0074 	ldr	r0, [pc, #116]	; 2c4 <print_help+0x108>
     24c:	eb000362 	bl	fdc <printf>
     250:	e3a00013 	mov	r0, #19
     254:	ebffffce 	bl	194 <print_spaces>
     258:	e59f0068 	ldr	r0, [pc, #104]	; 2c8 <print_help+0x10c>
     25c:	eb00035e 	bl	fdc <printf>
     260:	e59f0064 	ldr	r0, [pc, #100]	; 2cc <print_help+0x110>
     264:	eb00035c 	bl	fdc <printf>
     268:	e3a0001d 	mov	r0, #29
     26c:	ebffffc8 	bl	194 <print_spaces>
     270:	e59f0058 	ldr	r0, [pc, #88]	; 2d0 <print_help+0x114>
     274:	eb000358 	bl	fdc <printf>
     278:	e59f0054 	ldr	r0, [pc, #84]	; 2d4 <print_help+0x118>
     27c:	eb000356 	bl	fdc <printf>
     280:	e3a0000b 	mov	r0, #11
     284:	ebffffc2 	bl	194 <print_spaces>
     288:	e59f0048 	ldr	r0, [pc, #72]	; 2d8 <print_help+0x11c>
     28c:	e8bd4008 	pop	{r3, lr}
     290:	ea000351 	b	fdc <printf>
     294:	00001d39 	.word	0x00001d39
     298:	00001d43 	.word	0x00001d43
     29c:	00001d45 	.word	0x00001d45
     2a0:	00001d56 	.word	0x00001d56
     2a4:	00001d62 	.word	0x00001d62
     2a8:	00001d83 	.word	0x00001d83
     2ac:	00001dad 	.word	0x00001dad
     2b0:	00001daf 	.word	0x00001daf
     2b4:	00001dc5 	.word	0x00001dc5
     2b8:	00001dd1 	.word	0x00001dd1
     2bc:	00001dfd 	.word	0x00001dfd
     2c0:	00001e09 	.word	0x00001e09
     2c4:	00001e2a 	.word	0x00001e2a
     2c8:	00001e36 	.word	0x00001e36
     2cc:	00001e42 	.word	0x00001e42
     2d0:	00001e44 	.word	0x00001e44
     2d4:	00001e53 	.word	0x00001e53
     2d8:	00001e67 	.word	0x00001e67

000002dc <load_run>:
     2dc:	e92d4010 	push	{r4, lr}
     2e0:	e1a04001 	mov	r4, r1
     2e4:	e2400001 	sub	r0, r0, #1
     2e8:	e3500004 	cmp	r0, #4
     2ec:	979ff100 	ldrls	pc, [pc, r0, lsl #2]
     2f0:	ea000038 	b	3d8 <load_run+0xfc>
     2f4:	00000308 	.word	0x00000308
     2f8:	0000034c 	.word	0x0000034c
     2fc:	00000360 	.word	0x00000360
     300:	00000384 	.word	0x00000384
     304:	000003a8 	.word	0x000003a8
     308:	e59f00f0 	ldr	r0, [pc, #240]	; 400 <load_run+0x124>
     30c:	e59f10f0 	ldr	r1, [pc, #240]	; 404 <load_run+0x128>
     310:	eb000331 	bl	fdc <printf>
     314:	e3a00401 	mov	r0, #16777216	; 0x1000000
     318:	e3a01502 	mov	r1, #8388608	; 0x800000
     31c:	eb00012d 	bl	7d8 <xmodemReceive>
     320:	e1a04000 	mov	r4, r0
     324:	e3500502 	cmp	r0, #8388608	; 0x800000
     328:	859f00d8 	ldrhi	r0, [pc, #216]	; 408 <load_run+0x12c>
     32c:	81a01004 	movhi	r1, r4
     330:	8a000026 	bhi	3d0 <load_run+0xf4>
     334:	e59f00d0 	ldr	r0, [pc, #208]	; 40c <load_run+0x130>
     338:	eb000327 	bl	fdc <printf>
     33c:	e3a00401 	mov	r0, #16777216	; 0x1000000
     340:	e1a01004 	mov	r1, r4
     344:	e8bd4010 	pop	{r4, lr}
     348:	ea0001c7 	b	a6c <elfsplitter>
     34c:	ebffff9a 	bl	1bc <print_help>
     350:	ebffff4f 	bl	94 <_core_status>
     354:	e3a00010 	mov	r0, #16
     358:	ebffff8d 	bl	194 <print_spaces>
     35c:	ea000025 	b	3f8 <load_run+0x11c>
     360:	e59f00a8 	ldr	r0, [pc, #168]	; 410 <load_run+0x134>
     364:	e3a01702 	mov	r1, #524288	; 0x80000
     368:	eb00031b 	bl	fdc <printf>
     36c:	e3a00010 	mov	r0, #16
     370:	ebffff87 	bl	194 <print_spaces>
     374:	e59f0098 	ldr	r0, [pc, #152]	; 414 <load_run+0x138>
     378:	eb000317 	bl	fdc <printf>
     37c:	e3a00702 	mov	r0, #524288	; 0x80000
     380:	ea00001b 	b	3f4 <load_run+0x118>
     384:	e59f0084 	ldr	r0, [pc, #132]	; 410 <load_run+0x134>
     388:	e3a01902 	mov	r1, #32768	; 0x8000
     38c:	eb000312 	bl	fdc <printf>
     390:	e3a00010 	mov	r0, #16
     394:	ebffff7e 	bl	194 <print_spaces>
     398:	e59f0074 	ldr	r0, [pc, #116]	; 414 <load_run+0x138>
     39c:	eb00030e 	bl	fdc <printf>
     3a0:	e3a00902 	mov	r0, #32768	; 0x8000
     3a4:	ea000012 	b	3f4 <load_run+0x118>
     3a8:	e59f0050 	ldr	r0, [pc, #80]	; 400 <load_run+0x124>
     3ac:	e59f1050 	ldr	r1, [pc, #80]	; 404 <load_run+0x128>
     3b0:	eb000309 	bl	fdc <printf>
     3b4:	e1a00004 	mov	r0, r4
     3b8:	e3a01502 	mov	r1, #8388608	; 0x800000
     3bc:	eb000105 	bl	7d8 <xmodemReceive>
     3c0:	e1a01000 	mov	r1, r0
     3c4:	e3500502 	cmp	r0, #8388608	; 0x800000
     3c8:	98bd8010 	popls	{r4, pc}
     3cc:	e59f0034 	ldr	r0, [pc, #52]	; 408 <load_run+0x12c>
     3d0:	e8bd4010 	pop	{r4, lr}
     3d4:	ea000300 	b	fdc <printf>
     3d8:	e59f0030 	ldr	r0, [pc, #48]	; 410 <load_run+0x134>
     3dc:	eb0002fe 	bl	fdc <printf>
     3e0:	e3a00010 	mov	r0, #16
     3e4:	ebffff6a 	bl	194 <print_spaces>
     3e8:	e59f0024 	ldr	r0, [pc, #36]	; 414 <load_run+0x138>
     3ec:	eb0002fa 	bl	fdc <printf>
     3f0:	e1a00004 	mov	r0, r4
     3f4:	ebffff14 	bl	4c <_jump_to_program>
     3f8:	e8bd4010 	pop	{r4, lr}
     3fc:	ea000305 	b	1018 <_testpass>
     400:	00001f0b 	.word	0x00001f0b
     404:	00001e74 	.word	0x00001e74
     408:	00001eb2 	.word	0x00001eb2
     40c:	00001ed0 	.word	0x00001ed0
     410:	00001edc 	.word	0x00001edc
     414:	00001ece 	.word	0x00001ece

00000418 <get_hex>:
     418:	e92d40f0 	push	{r4, r5, r6, r7, lr}
     41c:	e3a0c000 	mov	ip, #0
     420:	e582c000 	str	ip, [r2]
     424:	e1a0c001 	mov	ip, r1
     428:	e2815007 	add	r5, r1, #7
     42c:	e3a06008 	mov	r6, #8
     430:	e7d0400c 	ldrb	r4, [r0, ip]
     434:	e2447030 	sub	r7, r4, #48	; 0x30
     438:	e20770ff 	and	r7, r7, #255	; 0xff
     43c:	e3570009 	cmp	r7, #9
     440:	95924000 	ldrls	r4, [r2]
     444:	91a04204 	lslls	r4, r4, #4
     448:	95824000 	strls	r4, [r2]
     44c:	92444030 	subls	r4, r4, #48	; 0x30
     450:	9a000007 	bls	474 <get_hex+0x5c>
     454:	e2447041 	sub	r7, r4, #65	; 0x41
     458:	e20770ff 	and	r7, r7, #255	; 0xff
     45c:	e3570005 	cmp	r7, #5
     460:	8a000008 	bhi	488 <get_hex+0x70>
     464:	e5924000 	ldr	r4, [r2]
     468:	e1a04204 	lsl	r4, r4, #4
     46c:	e5824000 	str	r4, [r2]
     470:	e2444037 	sub	r4, r4, #55	; 0x37
     474:	e7d0700c 	ldrb	r7, [r0, ip]
     478:	e0844007 	add	r4, r4, r7
     47c:	e5824000 	str	r4, [r2]
     480:	e3a04000 	mov	r4, #0
     484:	ea00000a 	b	4b4 <get_hex+0x9c>
     488:	e2444061 	sub	r4, r4, #97	; 0x61
     48c:	e20440ff 	and	r4, r4, #255	; 0xff
     490:	e3540005 	cmp	r4, #5
     494:	95924000 	ldrls	r4, [r2]
     498:	91a04204 	lslls	r4, r4, #4
     49c:	95824000 	strls	r4, [r2]
     4a0:	92444057 	subls	r4, r4, #87	; 0x57
     4a4:	9afffff2 	bls	474 <get_hex+0x5c>
     4a8:	e061400c 	rsb	r4, r1, ip
     4ac:	e5834000 	str	r4, [r3]
     4b0:	e3a04001 	mov	r4, #1
     4b4:	e155000c 	cmp	r5, ip
     4b8:	b5836000 	strlt	r6, [r3]
     4bc:	b3a04001 	movlt	r4, #1
     4c0:	e28cc001 	add	ip, ip, #1
     4c4:	e3540000 	cmp	r4, #0
     4c8:	0affffd8 	beq	430 <get_hex+0x18>
     4cc:	e2810001 	add	r0, r1, #1
     4d0:	e15c0000 	cmp	ip, r0
     4d4:	d3a00000 	movle	r0, #0
     4d8:	c3a00001 	movgt	r0, #1
     4dc:	e8bd80f0 	pop	{r4, r5, r6, r7, pc}

000004e0 <get_address_data>:
     4e0:	e92d4037 	push	{r0, r1, r2, r4, r5, lr}
     4e4:	e1a05000 	mov	r5, r0
     4e8:	e1a03001 	mov	r3, r1
     4ec:	e1a04002 	mov	r4, r2
     4f0:	e3a01002 	mov	r1, #2
     4f4:	e1a02003 	mov	r2, r3
     4f8:	e28d3004 	add	r3, sp, #4
     4fc:	ebffffc5 	bl	418 <get_hex>
     500:	e3500000 	cmp	r0, #0
     504:	0a000005 	beq	520 <get_address_data+0x40>
     508:	e1a00005 	mov	r0, r5
     50c:	e59d1004 	ldr	r1, [sp, #4]
     510:	e2811003 	add	r1, r1, #3
     514:	e1a02004 	mov	r2, r4
     518:	e28d3004 	add	r3, sp, #4
     51c:	ebffffbd 	bl	418 <get_hex>
     520:	e28dd00c 	add	sp, sp, #12
     524:	e8bd8030 	pop	{r4, r5, pc}

00000528 <parse>:
     528:	e92d4030 	push	{r4, r5, lr}
     52c:	e24dd01c 	sub	sp, sp, #28
     530:	e1a04000 	mov	r4, r0
     534:	e28d0008 	add	r0, sp, #8
     538:	e59f1220 	ldr	r1, [pc, #544]	; 760 <parse+0x238>
     53c:	e3a02010 	mov	r2, #16
     540:	eb0003d1 	bl	148c <memcpy>
     544:	e5d43001 	ldrb	r3, [r4, #1]
     548:	e3530000 	cmp	r3, #0
     54c:	0a000081 	beq	758 <parse+0x230>
     550:	e353000d 	cmp	r3, #13
     554:	1a000011 	bne	5a0 <parse+0x78>
     558:	e5d43000 	ldrb	r3, [r4]
     55c:	e353006c 	cmp	r3, #108	; 0x6c
     560:	0a000005 	beq	57c <parse+0x54>
     564:	e3530073 	cmp	r3, #115	; 0x73
     568:	0a000006 	beq	588 <parse+0x60>
     56c:	e3530068 	cmp	r3, #104	; 0x68
     570:	1a000075 	bne	74c <parse+0x224>
     574:	ebffff10 	bl	1bc <print_help>
     578:	ea000076 	b	758 <parse+0x230>
     57c:	e3a00001 	mov	r0, #1
     580:	e3a01000 	mov	r1, #0
     584:	ea000062 	b	714 <parse+0x1ec>
     588:	ebfffec1 	bl	94 <_core_status>
     58c:	e3a00010 	mov	r0, #16
     590:	ebfffeff 	bl	194 <print_spaces>
     594:	e59f01c8 	ldr	r0, [pc, #456]	; 764 <parse+0x23c>
     598:	eb00028f 	bl	fdc <printf>
     59c:	ea00006d 	b	758 <parse+0x230>
     5a0:	e3530020 	cmp	r3, #32
     5a4:	1a000068 	bne	74c <parse+0x224>
     5a8:	e5d43000 	ldrb	r3, [r4]
     5ac:	e353006a 	cmp	r3, #106	; 0x6a
     5b0:	0a00001b 	beq	624 <parse+0xfc>
     5b4:	8a000004 	bhi	5cc <parse+0xa4>
     5b8:	e3530062 	cmp	r3, #98	; 0x62
     5bc:	0a00004b 	beq	6f0 <parse+0x1c8>
     5c0:	e3530064 	cmp	r3, #100	; 0x64
     5c4:	0a000007 	beq	5e8 <parse+0xc0>
     5c8:	ea00005f 	b	74c <parse+0x224>
     5cc:	e3530072 	cmp	r3, #114	; 0x72
     5d0:	0a00003e 	beq	6d0 <parse+0x1a8>
     5d4:	e3530077 	cmp	r3, #119	; 0x77
     5d8:	0a00004f 	beq	71c <parse+0x1f4>
     5dc:	e3530070 	cmp	r3, #112	; 0x70
     5e0:	1a000059 	bne	74c <parse+0x224>
     5e4:	ea000017 	b	648 <parse+0x120>
     5e8:	e1a00004 	mov	r0, r4
     5ec:	e1a0100d 	mov	r1, sp
     5f0:	e28d2004 	add	r2, sp, #4
     5f4:	ebffffb9 	bl	4e0 <get_address_data>
     5f8:	e3500000 	cmp	r0, #0
     5fc:	159d4000 	ldrne	r4, [sp]
     600:	0a000054 	beq	758 <parse+0x230>
     604:	e89d000c 	ldm	sp, {r2, r3}
     608:	e0823003 	add	r3, r2, r3
     60c:	e1540003 	cmp	r4, r3
     610:	2a000050 	bcs	758 <parse+0x230>
     614:	e1a00004 	mov	r0, r4
     618:	ebfffed8 	bl	180 <printm>
     61c:	e2844004 	add	r4, r4, #4
     620:	eafffff7 	b	604 <parse+0xdc>
     624:	e1a00004 	mov	r0, r4
     628:	e3a01002 	mov	r1, #2
     62c:	e1a0200d 	mov	r2, sp
     630:	e28d3004 	add	r3, sp, #4
     634:	ebffff77 	bl	418 <get_hex>
     638:	e3500000 	cmp	r0, #0
     63c:	13a00000 	movne	r0, #0
     640:	0a000044 	beq	758 <parse+0x230>
     644:	ea000031 	b	710 <parse+0x1e8>
     648:	e1a00004 	mov	r0, r4
     64c:	e3a01002 	mov	r1, #2
     650:	e1a0200d 	mov	r2, sp
     654:	e28d3004 	add	r3, sp, #4
     658:	ebffff6e 	bl	418 <get_hex>
     65c:	e3500000 	cmp	r0, #0
     660:	0a00003c 	beq	758 <parse+0x230>
     664:	e3a03000 	mov	r3, #0
     668:	e58d3004 	str	r3, [sp, #4]
     66c:	e59d3000 	ldr	r3, [sp]
     670:	e2832001 	add	r2, r3, #1
     674:	e58d2000 	str	r2, [sp]
     678:	e5d34000 	ldrb	r4, [r3]
     67c:	e59f50e4 	ldr	r5, [pc, #228]	; 768 <parse+0x240>
     680:	e3140080 	tst	r4, #128	; 0x80
     684:	1a000033 	bne	758 <parse+0x230>
     688:	e59d3004 	ldr	r3, [sp, #4]
     68c:	e1530005 	cmp	r3, r5
     690:	8a000030 	bhi	758 <parse+0x230>
     694:	e3540000 	cmp	r4, #0
     698:	0a000004 	beq	6b0 <parse+0x188>
     69c:	e1a00004 	mov	r0, r4
     6a0:	eb000260 	bl	1028 <_outbyte>
     6a4:	e354000d 	cmp	r4, #13
     6a8:	059f00b4 	ldreq	r0, [pc, #180]	; 764 <parse+0x23c>
     6ac:	0b00024a 	bleq	fdc <printf>
     6b0:	e59d3000 	ldr	r3, [sp]
     6b4:	e2832001 	add	r2, r3, #1
     6b8:	e58d2000 	str	r2, [sp]
     6bc:	e5d34000 	ldrb	r4, [r3]
     6c0:	e59d3004 	ldr	r3, [sp, #4]
     6c4:	e2833001 	add	r3, r3, #1
     6c8:	e58d3004 	str	r3, [sp, #4]
     6cc:	eaffffeb 	b	680 <parse+0x158>
     6d0:	e1a00004 	mov	r0, r4
     6d4:	e3a01002 	mov	r1, #2
     6d8:	e1a0200d 	mov	r2, sp
     6dc:	e28d3004 	add	r3, sp, #4
     6e0:	ebffff4c 	bl	418 <get_hex>
     6e4:	e3500000 	cmp	r0, #0
     6e8:	0a00001a 	beq	758 <parse+0x230>
     6ec:	ea000013 	b	740 <parse+0x218>
     6f0:	e1a00004 	mov	r0, r4
     6f4:	e3a01002 	mov	r1, #2
     6f8:	e1a0200d 	mov	r2, sp
     6fc:	e28d3004 	add	r3, sp, #4
     700:	ebffff44 	bl	418 <get_hex>
     704:	e3500000 	cmp	r0, #0
     708:	0a000012 	beq	758 <parse+0x230>
     70c:	e3a00005 	mov	r0, #5
     710:	e59d1000 	ldr	r1, [sp]
     714:	ebfffef0 	bl	2dc <load_run>
     718:	ea00000e 	b	758 <parse+0x230>
     71c:	e1a00004 	mov	r0, r4
     720:	e1a0100d 	mov	r1, sp
     724:	e28d2004 	add	r2, sp, #4
     728:	ebffff6c 	bl	4e0 <get_address_data>
     72c:	e3500000 	cmp	r0, #0
     730:	0a000008 	beq	758 <parse+0x230>
     734:	e59d3000 	ldr	r3, [sp]
     738:	e59d2004 	ldr	r2, [sp, #4]
     73c:	e5832000 	str	r2, [r3]
     740:	e59d0000 	ldr	r0, [sp]
     744:	ebfffe8d 	bl	180 <printm>
     748:	ea000002 	b	758 <parse+0x230>
     74c:	e59f0018 	ldr	r0, [pc, #24]	; 76c <parse+0x244>
     750:	e28d1008 	add	r1, sp, #8
     754:	eb000220 	bl	fdc <printf>
     758:	e28dd01c 	add	sp, sp, #28
     75c:	e8bd8030 	pop	{r4, r5, pc}
     760:	00001ee6 	.word	0x00001ee6
     764:	00001ece 	.word	0x00001ece
     768:	00000fff 	.word	0x00000fff
     76c:	00001f0b 	.word	0x00001f0b

00000770 <crc16_ccitt>:
     770:	e92d4030 	push	{r4, r5, lr}
     774:	e1a04000 	mov	r4, r0
     778:	e3a00000 	mov	r0, #0
     77c:	e1a03000 	mov	r3, r0
     780:	e59f2034 	ldr	r2, [pc, #52]	; 7bc <crc16_ccitt+0x4c>
     784:	e1530001 	cmp	r3, r1
     788:	aa00000a 	bge	7b8 <crc16_ccitt+0x48>
     78c:	e7d4c003 	ldrb	ip, [r4, r3]
     790:	e02cc420 	eor	ip, ip, r0, lsr #8
     794:	e082508c 	add	r5, r2, ip, lsl #1
     798:	e7d2c08c 	ldrb	ip, [r2, ip, lsl #1]
     79c:	e5d55001 	ldrb	r5, [r5, #1]
     7a0:	e18cc405 	orr	ip, ip, r5, lsl #8
     7a4:	e02c0400 	eor	r0, ip, r0, lsl #8
     7a8:	e1a00800 	lsl	r0, r0, #16
     7ac:	e1a00820 	lsr	r0, r0, #16
     7b0:	e2833001 	add	r3, r3, #1
     7b4:	eafffff2 	b	784 <crc16_ccitt+0x14>
     7b8:	e8bd8030 	pop	{r4, r5, pc}
     7bc:	00001b24 	.word	0x00001b24

000007c0 <flushinput>:
     7c0:	e92d4008 	push	{r3, lr}
     7c4:	e3a00f4b 	mov	r0, #300	; 0x12c
     7c8:	eb00021e 	bl	1048 <_inbyte>
     7cc:	e3500000 	cmp	r0, #0
     7d0:	aafffffb 	bge	7c4 <flushinput+0x4>
     7d4:	e8bd8008 	pop	{r3, pc}

000007d8 <xmodemReceive>:
     7d8:	e92d4ff0 	push	{r4, r5, r6, r7, r8, r9, sl, fp, lr}
     7dc:	e24dde41 	sub	sp, sp, #1040	; 0x410
     7e0:	e24dd00c 	sub	sp, sp, #12
     7e4:	e58d0008 	str	r0, [sp, #8]
     7e8:	e58d100c 	str	r1, [sp, #12]
     7ec:	e3a07019 	mov	r7, #25
     7f0:	e3a04000 	mov	r4, #0
     7f4:	e3a06001 	mov	r6, #1
     7f8:	e3a0b043 	mov	fp, #67	; 0x43
     7fc:	e1a05004 	mov	r5, r4
     800:	e28d8010 	add	r8, sp, #16
     804:	e288a003 	add	sl, r8, #3
     808:	e3a09050 	mov	r9, #80	; 0x50
     80c:	e35b0000 	cmp	fp, #0
     810:	11a0000b 	movne	r0, fp
     814:	1b000203 	blne	1028 <_outbyte>
     818:	e3a00ffa 	mov	r0, #1000	; 0x3e8
     81c:	eb000209 	bl	1048 <_inbyte>
     820:	e3500000 	cmp	r0, #0
     824:	ba000018 	blt	88c <xmodemReceive+0xb4>
     828:	e3500002 	cmp	r0, #2
     82c:	0a000026 	beq	8cc <xmodemReceive+0xf4>
     830:	ca000002 	bgt	840 <xmodemReceive+0x68>
     834:	e3500001 	cmp	r0, #1
     838:	0a000021 	beq	8c4 <xmodemReceive+0xec>
     83c:	ea000012 	b	88c <xmodemReceive+0xb4>
     840:	e3500004 	cmp	r0, #4
     844:	0a000002 	beq	854 <xmodemReceive+0x7c>
     848:	e3500018 	cmp	r0, #24
     84c:	0a000005 	beq	868 <xmodemReceive+0x90>
     850:	ea00000d 	b	88c <xmodemReceive+0xb4>
     854:	e3a00006 	mov	r0, #6
     858:	eb0001f2 	bl	1028 <_outbyte>
     85c:	ebffffd7 	bl	7c0 <flushinput>
     860:	e1a00004 	mov	r0, r4
     864:	ea00007d 	b	a60 <xmodemReceive+0x288>
     868:	e3a00ffa 	mov	r0, #1000	; 0x3e8
     86c:	eb0001f5 	bl	1048 <_inbyte>
     870:	e3500018 	cmp	r0, #24
     874:	1a000004 	bne	88c <xmodemReceive+0xb4>
     878:	ebffffd0 	bl	7c0 <flushinput>
     87c:	e3a00006 	mov	r0, #6
     880:	eb0001e8 	bl	1028 <_outbyte>
     884:	e3e00000 	mvn	r0, #0
     888:	ea000074 	b	a60 <xmodemReceive+0x288>
     88c:	e2599001 	subs	r9, r9, #1
     890:	1affffdd 	bne	80c <xmodemReceive+0x34>
     894:	e35b0043 	cmp	fp, #67	; 0x43
     898:	03a0b015 	moveq	fp, #21
     89c:	0affffd9 	beq	808 <xmodemReceive+0x30>
     8a0:	ebffffc6 	bl	7c0 <flushinput>
     8a4:	e3a00018 	mov	r0, #24
     8a8:	eb0001de 	bl	1028 <_outbyte>
     8ac:	e3a00018 	mov	r0, #24
     8b0:	eb0001dc 	bl	1028 <_outbyte>
     8b4:	e3a00018 	mov	r0, #24
     8b8:	eb0001da 	bl	1028 <_outbyte>
     8bc:	e3e00001 	mvn	r0, #1
     8c0:	ea000066 	b	a60 <xmodemReceive+0x288>
     8c4:	e3a09080 	mov	r9, #128	; 0x80
     8c8:	ea000000 	b	8d0 <xmodemReceive+0xf8>
     8cc:	e3a09b01 	mov	r9, #1024	; 0x400
     8d0:	e35b0043 	cmp	fp, #67	; 0x43
     8d4:	03a05001 	moveq	r5, #1
     8d8:	e5cd0010 	strb	r0, [sp, #16]
     8dc:	e3a0b000 	mov	fp, #0
     8e0:	e0892005 	add	r2, r9, r5
     8e4:	e2822002 	add	r2, r2, #2
     8e8:	e152000b 	cmp	r2, fp
     8ec:	ba00000a 	blt	91c <xmodemReceive+0x144>
     8f0:	e3a00ffa 	mov	r0, #1000	; 0x3e8
     8f4:	e58d2004 	str	r2, [sp, #4]
     8f8:	eb0001d2 	bl	1048 <_inbyte>
     8fc:	e28bb001 	add	fp, fp, #1
     900:	e3500000 	cmp	r0, #0
     904:	e59d2004 	ldr	r2, [sp, #4]
     908:	ba00002c 	blt	9c0 <xmodemReceive+0x1e8>
     90c:	e28b3010 	add	r3, fp, #16
     910:	e1a0100d 	mov	r1, sp
     914:	e7c30001 	strb	r0, [r3, r1]
     918:	eafffff2 	b	8e8 <xmodemReceive+0x110>
     91c:	e5dd3011 	ldrb	r3, [sp, #17]
     920:	e5dd2012 	ldrb	r2, [sp, #18]
     924:	e1e02002 	mvn	r2, r2
     928:	e20220ff 	and	r2, r2, #255	; 0xff
     92c:	e1530002 	cmp	r3, r2
     930:	1a000022 	bne	9c0 <xmodemReceive+0x1e8>
     934:	e1530006 	cmp	r3, r6
     938:	0a000002 	beq	948 <xmodemReceive+0x170>
     93c:	e2462001 	sub	r2, r6, #1
     940:	e1530002 	cmp	r3, r2
     944:	1a00001d 	bne	9c0 <xmodemReceive+0x1e8>
     948:	e3550000 	cmp	r5, #0
     94c:	01a03008 	moveq	r3, r8
     950:	01a02005 	moveq	r2, r5
     954:	0a00000c 	beq	98c <xmodemReceive+0x1b4>
     958:	e1a0000a 	mov	r0, sl
     95c:	e1a01009 	mov	r1, r9
     960:	ebffff82 	bl	770 <crc16_ccitt>
     964:	e28d1e41 	add	r1, sp, #1040	; 0x410
     968:	e2811008 	add	r1, r1, #8
     96c:	e0813009 	add	r3, r1, r9
     970:	e5532404 	ldrb	r2, [r3, #-1028]	; 0xfffffbfc
     974:	e5533405 	ldrb	r3, [r3, #-1029]	; 0xfffffbfb
     978:	e0823403 	add	r3, r2, r3, lsl #8
     97c:	e1a03803 	lsl	r3, r3, #16
     980:	e1500823 	cmp	r0, r3, lsr #16
     984:	1a00000d 	bne	9c0 <xmodemReceive+0x1e8>
     988:	ea000011 	b	9d4 <xmodemReceive+0x1fc>
     98c:	e5d31003 	ldrb	r1, [r3, #3]
     990:	e0822001 	add	r2, r2, r1
     994:	e20220ff 	and	r2, r2, #255	; 0xff
     998:	e2833001 	add	r3, r3, #1
     99c:	e0681003 	rsb	r1, r8, r3
     9a0:	e1510009 	cmp	r1, r9
     9a4:	bafffff8 	blt	98c <xmodemReceive+0x1b4>
     9a8:	e28d1e41 	add	r1, sp, #1040	; 0x410
     9ac:	e2811008 	add	r1, r1, #8
     9b0:	e0813009 	add	r3, r1, r9
     9b4:	e5533405 	ldrb	r3, [r3, #-1029]	; 0xfffffbfb
     9b8:	e1530002 	cmp	r3, r2
     9bc:	0a000004 	beq	9d4 <xmodemReceive+0x1fc>
     9c0:	ebffff7e 	bl	7c0 <flushinput>
     9c4:	e3a00015 	mov	r0, #21
     9c8:	eb000196 	bl	1028 <_outbyte>
     9cc:	e3a0b000 	mov	fp, #0
     9d0:	eaffff8c 	b	808 <xmodemReceive+0x30>
     9d4:	e5dd3011 	ldrb	r3, [sp, #17]
     9d8:	e1530006 	cmp	r3, r6
     9dc:	1a000011 	bne	a28 <xmodemReceive+0x250>
     9e0:	e59d100c 	ldr	r1, [sp, #12]
     9e4:	e0642001 	rsb	r2, r4, r1
     9e8:	e1520009 	cmp	r2, r9
     9ec:	ca000002 	bgt	9fc <xmodemReceive+0x224>
     9f0:	e3520000 	cmp	r2, #0
     9f4:	da000008 	ble	a1c <xmodemReceive+0x244>
     9f8:	e1a09002 	mov	r9, r2
     9fc:	e59d2008 	ldr	r2, [sp, #8]
     a00:	e0820004 	add	r0, r2, r4
     a04:	e1a0100a 	mov	r1, sl
     a08:	e1a02009 	mov	r2, r9
     a0c:	e58d3004 	str	r3, [sp, #4]
     a10:	eb00029d 	bl	148c <memcpy>
     a14:	e0844009 	add	r4, r4, r9
     a18:	e59d3004 	ldr	r3, [sp, #4]
     a1c:	e2836001 	add	r6, r3, #1
     a20:	e20660ff 	and	r6, r6, #255	; 0xff
     a24:	e3a0701a 	mov	r7, #26
     a28:	e2477001 	sub	r7, r7, #1
     a2c:	e3570000 	cmp	r7, #0
     a30:	ca000008 	bgt	a58 <xmodemReceive+0x280>
     a34:	ebffff61 	bl	7c0 <flushinput>
     a38:	e3a00018 	mov	r0, #24
     a3c:	eb000179 	bl	1028 <_outbyte>
     a40:	e3a00018 	mov	r0, #24
     a44:	eb000177 	bl	1028 <_outbyte>
     a48:	e3a00018 	mov	r0, #24
     a4c:	eb000175 	bl	1028 <_outbyte>
     a50:	e3e00002 	mvn	r0, #2
     a54:	ea000001 	b	a60 <xmodemReceive+0x288>
     a58:	e3a00006 	mov	r0, #6
     a5c:	eaffffd9 	b	9c8 <xmodemReceive+0x1f0>
     a60:	e28dde41 	add	sp, sp, #1040	; 0x410
     a64:	e28dd00c 	add	sp, sp, #12
     a68:	e8bd8ff0 	pop	{r4, r5, r6, r7, r8, r9, sl, fp, pc}

00000a6c <elfsplitter>:
     a6c:	e92d47f0 	push	{r4, r5, r6, r7, r8, r9, sl, lr}
     a70:	e1a04000 	mov	r4, r0
     a74:	e2800001 	add	r0, r0, #1
     a78:	e59f111c 	ldr	r1, [pc, #284]	; b9c <elfsplitter+0x130>
     a7c:	e3a02003 	mov	r2, #3
     a80:	eb00026d 	bl	143c <strncmp>
     a84:	e3500000 	cmp	r0, #0
     a88:	159f0110 	ldrne	r0, [pc, #272]	; ba0 <elfsplitter+0x134>
     a8c:	1a000005 	bne	aa8 <elfsplitter+0x3c>
     a90:	e5d43012 	ldrb	r3, [r4, #18]
     a94:	e5d42013 	ldrb	r2, [r4, #19]
     a98:	e1833402 	orr	r3, r3, r2, lsl #8
     a9c:	e3530028 	cmp	r3, #40	; 0x28
     aa0:	0a000003 	beq	ab4 <elfsplitter+0x48>
     aa4:	e59f00f8 	ldr	r0, [pc, #248]	; ba4 <elfsplitter+0x138>
     aa8:	eb00014b 	bl	fdc <printf>
     aac:	e3a00001 	mov	r0, #1
     ab0:	e8bd87f0 	pop	{r4, r5, r6, r7, r8, r9, sl, pc}
     ab4:	e5d43030 	ldrb	r3, [r4, #48]	; 0x30
     ab8:	e5d46031 	ldrb	r6, [r4, #49]	; 0x31
     abc:	e1836406 	orr	r6, r3, r6, lsl #8
     ac0:	e1a01000 	mov	r1, r0
     ac4:	e1a07000 	mov	r7, r0
     ac8:	e1510006 	cmp	r1, r6
     acc:	2a000031 	bcs	b98 <elfsplitter+0x12c>
     ad0:	e5d4302e 	ldrb	r3, [r4, #46]	; 0x2e
     ad4:	e5d4202f 	ldrb	r2, [r4, #47]	; 0x2f
     ad8:	e1833402 	orr	r3, r3, r2, lsl #8
     adc:	e5942020 	ldr	r2, [r4, #32]
     ae0:	e0232391 	mla	r3, r1, r3, r2
     ae4:	e0843003 	add	r3, r4, r3
     ae8:	e5932004 	ldr	r2, [r3, #4]
     aec:	e3520001 	cmp	r2, #1
     af0:	0a000003 	beq	b04 <elfsplitter+0x98>
     af4:	e5932004 	ldr	r2, [r3, #4]
     af8:	e3520008 	cmp	r2, #8
     afc:	1a000023 	bne	b90 <elfsplitter+0x124>
     b00:	ea000015 	b	b5c <elfsplitter+0xf0>
     b04:	e5932014 	ldr	r2, [r3, #20]
     b08:	e3520000 	cmp	r2, #0
     b0c:	13a02000 	movne	r2, #0
     b10:	0afffff7 	beq	af4 <elfsplitter+0x88>
     b14:	e593c014 	ldr	ip, [r3, #20]
     b18:	e152000c 	cmp	r2, ip
     b1c:	2afffff4 	bcs	af4 <elfsplitter+0x88>
     b20:	e5935010 	ldr	r5, [r3, #16]
     b24:	e0825005 	add	r5, r2, r5
     b28:	e593800c 	ldr	r8, [r3, #12]
     b2c:	e084c005 	add	ip, r4, r5
     b30:	e5dc9003 	ldrb	r9, [ip, #3]
     b34:	e5dca002 	ldrb	sl, [ip, #2]
     b38:	e1a0a80a 	lsl	sl, sl, #16
     b3c:	e18aac09 	orr	sl, sl, r9, lsl #24
     b40:	e7d49005 	ldrb	r9, [r4, r5]
     b44:	e18a5009 	orr	r5, sl, r9
     b48:	e5dcc001 	ldrb	ip, [ip, #1]
     b4c:	e185c40c 	orr	ip, r5, ip, lsl #8
     b50:	e782c008 	str	ip, [r2, r8]
     b54:	e2822004 	add	r2, r2, #4
     b58:	eaffffed 	b	b14 <elfsplitter+0xa8>
     b5c:	e5932014 	ldr	r2, [r3, #20]
     b60:	e3520000 	cmp	r2, #0
     b64:	15932010 	ldrne	r2, [r3, #16]
     b68:	0a000008 	beq	b90 <elfsplitter+0x124>
     b6c:	e593c010 	ldr	ip, [r3, #16]
     b70:	e5935014 	ldr	r5, [r3, #20]
     b74:	e08c5005 	add	r5, ip, r5
     b78:	e1520005 	cmp	r2, r5
     b7c:	3593500c 	ldrcc	r5, [r3, #12]
     b80:	306cc005 	rsbcc	ip, ip, r5
     b84:	378c7002 	strcc	r7, [ip, r2]
     b88:	32822004 	addcc	r2, r2, #4
     b8c:	3afffff6 	bcc	b6c <elfsplitter+0x100>
     b90:	e2811001 	add	r1, r1, #1
     b94:	eaffffcb 	b	ac8 <elfsplitter+0x5c>
     b98:	e8bd87f0 	pop	{r4, r5, r6, r7, r8, r9, sl, pc}
     b9c:	00001f27 	.word	0x00001f27
     ba0:	00001f2b 	.word	0x00001f2b
     ba4:	00001f44 	.word	0x00001f44

00000ba8 <outbyte>:
     ba8:	e1a02000 	mov	r2, r0
     bac:	e5903000 	ldr	r3, [r0]
     bb0:	e3530000 	cmp	r3, #0
     bb4:	0a000003 	beq	bc8 <outbyte+0x20>
     bb8:	e2830001 	add	r0, r3, #1
     bbc:	e5820000 	str	r0, [r2]
     bc0:	e5c31000 	strb	r1, [r3]
     bc4:	e1a0f00e 	mov	pc, lr
     bc8:	e1a00001 	mov	r0, r1
     bcc:	ea000115 	b	1028 <_outbyte>

00000bd0 <prints>:
     bd0:	e92d43f8 	push	{r3, r4, r5, r6, r7, r8, r9, lr}
     bd4:	e1a06000 	mov	r6, r0
     bd8:	e1a07001 	mov	r7, r1
     bdc:	e2524000 	subs	r4, r2, #0
     be0:	c3a02000 	movgt	r2, #0
     be4:	da00000a 	ble	c14 <prints+0x44>
     be8:	e7d71002 	ldrb	r1, [r7, r2]
     bec:	e3510000 	cmp	r1, #0
     bf0:	12822001 	addne	r2, r2, #1
     bf4:	1afffffb 	bne	be8 <prints+0x18>
     bf8:	e1520004 	cmp	r2, r4
     bfc:	b0624004 	rsblt	r4, r2, r4
     c00:	a1a04001 	movge	r4, r1
     c04:	e3130002 	tst	r3, #2
     c08:	13a08030 	movne	r8, #48	; 0x30
     c0c:	03a08020 	moveq	r8, #32
     c10:	ea000000 	b	c18 <prints+0x48>
     c14:	e3a08020 	mov	r8, #32
     c18:	e3130001 	tst	r3, #1
     c1c:	01a05004 	moveq	r5, r4
     c20:	020890ff 	andeq	r9, r8, #255	; 0xff
     c24:	1a000009 	bne	c50 <prints+0x80>
     c28:	e3550000 	cmp	r5, #0
     c2c:	da000004 	ble	c44 <prints+0x74>
     c30:	e1a00006 	mov	r0, r6
     c34:	e1a01009 	mov	r1, r9
     c38:	ebffffda 	bl	ba8 <outbyte>
     c3c:	e2455001 	sub	r5, r5, #1
     c40:	eafffff8 	b	c28 <prints+0x58>
     c44:	e1c45fc4 	bic	r5, r4, r4, asr #31
     c48:	e0654004 	rsb	r4, r5, r4
     c4c:	ea000000 	b	c54 <prints+0x84>
     c50:	e3a05000 	mov	r5, #0
     c54:	e0657007 	rsb	r7, r5, r7
     c58:	e7d71005 	ldrb	r1, [r7, r5]
     c5c:	e3510000 	cmp	r1, #0
     c60:	0a000003 	beq	c74 <prints+0xa4>
     c64:	e1a00006 	mov	r0, r6
     c68:	ebffffce 	bl	ba8 <outbyte>
     c6c:	e2855001 	add	r5, r5, #1
     c70:	eafffff8 	b	c58 <prints+0x88>
     c74:	e1a07004 	mov	r7, r4
     c78:	e20880ff 	and	r8, r8, #255	; 0xff
     c7c:	e3570000 	cmp	r7, #0
     c80:	da000004 	ble	c98 <prints+0xc8>
     c84:	e1a00006 	mov	r0, r6
     c88:	e1a01008 	mov	r1, r8
     c8c:	ebffffc5 	bl	ba8 <outbyte>
     c90:	e2477001 	sub	r7, r7, #1
     c94:	eafffff8 	b	c7c <prints+0xac>
     c98:	e3540000 	cmp	r4, #0
     c9c:	a0850004 	addge	r0, r5, r4
     ca0:	b2850000 	addlt	r0, r5, #0
     ca4:	e8bd83f8 	pop	{r3, r4, r5, r6, r7, r8, r9, pc}

00000ca8 <printi>:
     ca8:	e92d4ff0 	push	{r4, r5, r6, r7, r8, r9, sl, fp, lr}
     cac:	e24dd01c 	sub	sp, sp, #28
     cb0:	e1a09000 	mov	r9, r0
     cb4:	e1a05002 	mov	r5, r2
     cb8:	e28d6040 	add	r6, sp, #64	; 0x40
     cbc:	e8960140 	ldm	r6, {r6, r8}
     cc0:	e2514000 	subs	r4, r1, #0
     cc4:	1a000007 	bne	ce8 <printi+0x40>
     cc8:	e3a03030 	mov	r3, #48	; 0x30
     ccc:	e5cd3008 	strb	r3, [sp, #8]
     cd0:	e5cd1009 	strb	r1, [sp, #9]
     cd4:	e28d1008 	add	r1, sp, #8
     cd8:	e1a02006 	mov	r2, r6
     cdc:	e1a03008 	mov	r3, r8
     ce0:	ebffffba 	bl	bd0 <prints>
     ce4:	ea00003d 	b	de0 <printi+0x138>
     ce8:	e293b000 	adds	fp, r3, #0
     cec:	13a0b001 	movne	fp, #1
     cf0:	e352000a 	cmp	r2, #10
     cf4:	13a0b000 	movne	fp, #0
     cf8:	e35b0000 	cmp	fp, #0
     cfc:	0a000003 	beq	d10 <printi+0x68>
     d00:	e3540000 	cmp	r4, #0
     d04:	b2644000 	rsblt	r4, r4, #0
     d08:	b3a0b001 	movlt	fp, #1
     d0c:	a3a0b000 	movge	fp, #0
     d10:	e3a03000 	mov	r3, #0
     d14:	e5cd3017 	strb	r3, [sp, #23]
     d18:	e28d7017 	add	r7, sp, #23
     d1c:	e59da048 	ldr	sl, [sp, #72]	; 0x48
     d20:	e24aa03a 	sub	sl, sl, #58	; 0x3a
     d24:	e1a03007 	mov	r3, r7
     d28:	e3540000 	cmp	r4, #0
     d2c:	0a000013 	beq	d80 <printi+0xd8>
     d30:	e3550010 	cmp	r5, #16
     d34:	0204200f 	andeq	r2, r4, #15
     d38:	0a000004 	beq	d50 <printi+0xa8>
     d3c:	e1a00004 	mov	r0, r4
     d40:	e1a01005 	mov	r1, r5
     d44:	eb0000cb 	bl	1078 <__aeabi_idiv>
     d48:	e0000095 	mul	r0, r5, r0
     d4c:	e0602004 	rsb	r2, r0, r4
     d50:	e3520009 	cmp	r2, #9
     d54:	c082200a 	addgt	r2, r2, sl
     d58:	e2822030 	add	r2, r2, #48	; 0x30
     d5c:	e5672001 	strb	r2, [r7, #-1]!
     d60:	e3550010 	cmp	r5, #16
     d64:	01a04224 	lsreq	r4, r4, #4
     d68:	0affffed 	beq	d24 <printi+0x7c>
     d6c:	e1a00004 	mov	r0, r4
     d70:	e1a01005 	mov	r1, r5
     d74:	eb0000bf 	bl	1078 <__aeabi_idiv>
     d78:	e1a04000 	mov	r4, r0
     d7c:	eaffffe8 	b	d24 <printi+0x7c>
     d80:	e35b0000 	cmp	fp, #0
     d84:	0a00000f 	beq	dc8 <printi+0x120>
     d88:	e3560000 	cmp	r6, #0
     d8c:	0a000009 	beq	db8 <printi+0x110>
     d90:	e3180002 	tst	r8, #2
     d94:	0a000007 	beq	db8 <printi+0x110>
     d98:	e1a00009 	mov	r0, r9
     d9c:	e3a0102d 	mov	r1, #45	; 0x2d
     da0:	e58d7004 	str	r7, [sp, #4]
     da4:	ebffff7f 	bl	ba8 <outbyte>
     da8:	e2466001 	sub	r6, r6, #1
     dac:	e3a0b001 	mov	fp, #1
     db0:	e59d3004 	ldr	r3, [sp, #4]
     db4:	ea000003 	b	dc8 <printi+0x120>
     db8:	e2473001 	sub	r3, r7, #1
     dbc:	e3a0202d 	mov	r2, #45	; 0x2d
     dc0:	e5472001 	strb	r2, [r7, #-1]
     dc4:	e3a0b000 	mov	fp, #0
     dc8:	e1a00009 	mov	r0, r9
     dcc:	e1a01003 	mov	r1, r3
     dd0:	e1a02006 	mov	r2, r6
     dd4:	e1a03008 	mov	r3, r8
     dd8:	ebffff7c 	bl	bd0 <prints>
     ddc:	e08b0000 	add	r0, fp, r0
     de0:	e28dd01c 	add	sp, sp, #28
     de4:	e8bd8ff0 	pop	{r4, r5, r6, r7, r8, r9, sl, fp, pc}

00000de8 <print>:
     de8:	e92d4ff0 	push	{r4, r5, r6, r7, r8, r9, sl, fp, lr}
     dec:	e24dd01c 	sub	sp, sp, #28
     df0:	e1a07000 	mov	r7, r0
     df4:	e1a06001 	mov	r6, r1
     df8:	e1a04002 	mov	r4, r2
     dfc:	e3a05000 	mov	r5, #0
     e00:	e1a08005 	mov	r8, r5
     e04:	e59f919c 	ldr	r9, [pc, #412]	; fa8 <print+0x1c0>
     e08:	e5d63000 	ldrb	r3, [r6]
     e0c:	e3530000 	cmp	r3, #0
     e10:	0a000061 	beq	f9c <print+0x1b4>
     e14:	e3530025 	cmp	r3, #37	; 0x25
     e18:	1a000054 	bne	f70 <print+0x188>
     e1c:	e2862001 	add	r2, r6, #1
     e20:	e5d63001 	ldrb	r3, [r6, #1]
     e24:	e3530000 	cmp	r3, #0
     e28:	0a00005b 	beq	f9c <print+0x1b4>
     e2c:	e3530025 	cmp	r3, #37	; 0x25
     e30:	0a00004d 	beq	f6c <print+0x184>
     e34:	e353002d 	cmp	r3, #45	; 0x2d
     e38:	02862002 	addeq	r2, r6, #2
     e3c:	03a03001 	moveq	r3, #1
     e40:	13a03000 	movne	r3, #0
     e44:	e1a0c002 	mov	ip, r2
     e48:	e2822001 	add	r2, r2, #1
     e4c:	e5dc1000 	ldrb	r1, [ip]
     e50:	e3510030 	cmp	r1, #48	; 0x30
     e54:	03833002 	orreq	r3, r3, #2
     e58:	0afffff9 	beq	e44 <print+0x5c>
     e5c:	e3a02000 	mov	r2, #0
     e60:	e3a0b00a 	mov	fp, #10
     e64:	e1a0600c 	mov	r6, ip
     e68:	e5dc1000 	ldrb	r1, [ip]
     e6c:	e28cc001 	add	ip, ip, #1
     e70:	e2410030 	sub	r0, r1, #48	; 0x30
     e74:	e200a0ff 	and	sl, r0, #255	; 0xff
     e78:	e35a0009 	cmp	sl, #9
     e7c:	9022029b 	mlals	r2, fp, r2, r0
     e80:	9afffff7 	bls	e64 <print+0x7c>
     e84:	e3510073 	cmp	r1, #115	; 0x73
     e88:	1a000005 	bne	ea4 <print+0xbc>
     e8c:	e284a004 	add	sl, r4, #4
     e90:	e5941000 	ldr	r1, [r4]
     e94:	e1a00007 	mov	r0, r7
     e98:	e3510000 	cmp	r1, #0
     e9c:	01a01009 	moveq	r1, r9
     ea0:	ea00002f 	b	f64 <print+0x17c>
     ea4:	e3510064 	cmp	r1, #100	; 0x64
     ea8:	1a00000b 	bne	edc <print+0xf4>
     eac:	e284a004 	add	sl, r4, #4
     eb0:	e88d000c 	stm	sp, {r2, r3}
     eb4:	e3a03061 	mov	r3, #97	; 0x61
     eb8:	e58d3008 	str	r3, [sp, #8]
     ebc:	e1a00007 	mov	r0, r7
     ec0:	e5941000 	ldr	r1, [r4]
     ec4:	e3a0200a 	mov	r2, #10
     ec8:	e3a03001 	mov	r3, #1
     ecc:	ebffff75 	bl	ca8 <printi>
     ed0:	e0855000 	add	r5, r5, r0
     ed4:	e1a0400a 	mov	r4, sl
     ed8:	ea00002d 	b	f94 <print+0x1ac>
     edc:	e3510078 	cmp	r1, #120	; 0x78
     ee0:	0284a004 	addeq	sl, r4, #4
     ee4:	088d000c 	stmeq	sp, {r2, r3}
     ee8:	03a03061 	moveq	r3, #97	; 0x61
     eec:	0a000004 	beq	f04 <print+0x11c>
     ef0:	e3510058 	cmp	r1, #88	; 0x58
     ef4:	1a000007 	bne	f18 <print+0x130>
     ef8:	e284a004 	add	sl, r4, #4
     efc:	e88d000c 	stm	sp, {r2, r3}
     f00:	e3a03041 	mov	r3, #65	; 0x41
     f04:	e58d3008 	str	r3, [sp, #8]
     f08:	e1a00007 	mov	r0, r7
     f0c:	e5941000 	ldr	r1, [r4]
     f10:	e3a02010 	mov	r2, #16
     f14:	ea000008 	b	f3c <print+0x154>
     f18:	e3510075 	cmp	r1, #117	; 0x75
     f1c:	1a000008 	bne	f44 <print+0x15c>
     f20:	e284a004 	add	sl, r4, #4
     f24:	e88d000c 	stm	sp, {r2, r3}
     f28:	e3a03061 	mov	r3, #97	; 0x61
     f2c:	e58d3008 	str	r3, [sp, #8]
     f30:	e1a00007 	mov	r0, r7
     f34:	e5941000 	ldr	r1, [r4]
     f38:	e3a0200a 	mov	r2, #10
     f3c:	e3a03000 	mov	r3, #0
     f40:	eaffffe1 	b	ecc <print+0xe4>
     f44:	e3510063 	cmp	r1, #99	; 0x63
     f48:	1a000011 	bne	f94 <print+0x1ac>
     f4c:	e284a004 	add	sl, r4, #4
     f50:	e5941000 	ldr	r1, [r4]
     f54:	e5cd1014 	strb	r1, [sp, #20]
     f58:	e5cd8015 	strb	r8, [sp, #21]
     f5c:	e1a00007 	mov	r0, r7
     f60:	e28d1014 	add	r1, sp, #20
     f64:	ebffff19 	bl	bd0 <prints>
     f68:	eaffffd8 	b	ed0 <print+0xe8>
     f6c:	e1a06002 	mov	r6, r2
     f70:	e5d63000 	ldrb	r3, [r6]
     f74:	e353000a 	cmp	r3, #10
     f78:	01a00007 	moveq	r0, r7
     f7c:	03a0100d 	moveq	r1, #13
     f80:	0bffff08 	bleq	ba8 <outbyte>
     f84:	e1a00007 	mov	r0, r7
     f88:	e5d61000 	ldrb	r1, [r6]
     f8c:	ebffff05 	bl	ba8 <outbyte>
     f90:	e2855001 	add	r5, r5, #1
     f94:	e2866001 	add	r6, r6, #1
     f98:	eaffff9a 	b	e08 <print+0x20>
     f9c:	e1a00005 	mov	r0, r5
     fa0:	e28dd01c 	add	sp, sp, #28
     fa4:	e8bd8ff0 	pop	{r4, r5, r6, r7, r8, r9, sl, fp, pc}
     fa8:	00001f7b 	.word	0x00001f7b

00000fac <sprintf>:
     fac:	e92d000e 	push	{r1, r2, r3}
     fb0:	e92d4003 	push	{r0, r1, lr}
     fb4:	e28d3008 	add	r3, sp, #8
     fb8:	e5230004 	str	r0, [r3, #-4]!
     fbc:	e1a00003 	mov	r0, r3
     fc0:	e59d100c 	ldr	r1, [sp, #12]
     fc4:	e28d2010 	add	r2, sp, #16
     fc8:	ebffff86 	bl	de8 <print>
     fcc:	e28dd008 	add	sp, sp, #8
     fd0:	e49de004 	pop	{lr}		; (ldr lr, [sp], #4)
     fd4:	e28dd00c 	add	sp, sp, #12
     fd8:	e1a0f00e 	mov	pc, lr

00000fdc <printf>:
     fdc:	e92d000f 	push	{r0, r1, r2, r3}
     fe0:	e92d4007 	push	{r0, r1, r2, lr}
     fe4:	e28d0008 	add	r0, sp, #8
     fe8:	e3a03000 	mov	r3, #0
     fec:	e5203004 	str	r3, [r0, #-4]!
     ff0:	e59d1010 	ldr	r1, [sp, #16]
     ff4:	e28d2014 	add	r2, sp, #20
     ff8:	ebffff7a 	bl	de8 <print>
     ffc:	e28dd00c 	add	sp, sp, #12
    1000:	e49de004 	pop	{lr}		; (ldr lr, [sp], #4)
    1004:	e28dd010 	add	sp, sp, #16
    1008:	e1a0f00e 	mov	pc, lr

0000100c <_testfail>:
    100c:	e59fb46c 	ldr	fp, [pc, #1132]	; 1480 <AdrTestStatus>
    1010:	e58b0000 	str	r0, [fp]
    1014:	eafffffc 	b	100c <_testfail>

00001018 <_testpass>:
    1018:	e59fb460 	ldr	fp, [pc, #1120]	; 1480 <AdrTestStatus>
    101c:	e3a0a011 	mov	sl, #17
    1020:	e58ba000 	str	sl, [fp]
    1024:	eafffffb 	b	1018 <_testpass>

00001028 <_outbyte>:
    1028:	e59f1454 	ldr	r1, [pc, #1108]	; 1484 <AdrUARTDR>
    102c:	e59f3454 	ldr	r3, [pc, #1108]	; 1488 <AdrUARTFR>
    1030:	e5932000 	ldr	r2, [r3]
    1034:	e2022020 	and	r2, r2, #32
    1038:	e3520000 	cmp	r2, #0
    103c:	05c10000 	strbeq	r0, [r1]
    1040:	01b0f00e 	movseq	pc, lr
    1044:	1afffff9 	bne	1030 <_outbyte+0x8>

00001048 <_inbyte>:
    1048:	e59f2434 	ldr	r2, [pc, #1076]	; 1484 <AdrUARTDR>
    104c:	e59f3434 	ldr	r3, [pc, #1076]	; 1488 <AdrUARTFR>
    1050:	e1a01580 	lsl	r1, r0, #11
    1054:	e0811480 	add	r1, r1, r0, lsl #9
    1058:	e5930000 	ldr	r0, [r3]
    105c:	e2100010 	ands	r0, r0, #16
    1060:	05d20000 	ldrbeq	r0, [r2]
    1064:	01a0f00e 	moveq	pc, lr
    1068:	e2511001 	subs	r1, r1, #1
    106c:	1afffff9 	bne	1058 <_inbyte+0x10>
    1070:	e3e00000 	mvn	r0, #0
    1074:	e1b0f00e 	movs	pc, lr

00001078 <__aeabi_idiv>:
    1078:	e92d4010 	push	{r4, lr}
    107c:	e2002102 	and	r2, r0, #-2147483648	; 0x80000000
    1080:	e2013102 	and	r3, r1, #-2147483648	; 0x80000000
    1084:	e0224003 	eor	r4, r2, r3
    1088:	e3100102 	tst	r0, #-2147483648	; 0x80000000
    108c:	11e00000 	mvnne	r0, r0
    1090:	12800001 	addne	r0, r0, #1
    1094:	e3110102 	tst	r1, #-2147483648	; 0x80000000
    1098:	11e01001 	mvnne	r1, r1
    109c:	12811001 	addne	r1, r1, #1
    10a0:	e1a02001 	mov	r2, r1
    10a4:	e1a01000 	mov	r1, r0
    10a8:	e3520000 	cmp	r2, #0
    10ac:	0a000011 	beq	10f8 <__aeabi_idiv+0x80>
    10b0:	e3a00000 	mov	r0, #0
    10b4:	e3a03001 	mov	r3, #1
    10b8:	e3530000 	cmp	r3, #0
    10bc:	03a03201 	moveq	r3, #268435456	; 0x10000000
    10c0:	0a000003 	beq	10d4 <__aeabi_idiv+0x5c>
    10c4:	e1520001 	cmp	r2, r1
    10c8:	91a02082 	lslls	r2, r2, #1
    10cc:	91a03083 	lslls	r3, r3, #1
    10d0:	9afffff8 	bls	10b8 <__aeabi_idiv+0x40>
    10d4:	e1510002 	cmp	r1, r2
    10d8:	20411002 	subcs	r1, r1, r2
    10dc:	20800003 	addcs	r0, r0, r3
    10e0:	e1b030a3 	lsrs	r3, r3, #1
    10e4:	31a020a2 	lsrcc	r2, r2, #1
    10e8:	3afffff9 	bcc	10d4 <__aeabi_idiv+0x5c>
    10ec:	e3140102 	tst	r4, #-2147483648	; 0x80000000
    10f0:	11e00000 	mvnne	r0, r0
    10f4:	12800001 	addne	r0, r0, #1
    10f8:	e8fd8010 	ldm	sp!, {r4, pc}^

000010fc <strcpy>:
    10fc:	e92d4070 	push	{r4, r5, r6, lr}
    1100:	e1a06000 	mov	r6, r0
    1104:	e1862001 	orr	r2, r6, r1
    1108:	e3120003 	tst	r2, #3
    110c:	1a00002a 	bne	11bc <strcpy_slow>

00001110 <strcpy_fast>:
    1110:	e8b1003c 	ldm	r1!, {r2, r3, r4, r5}
    1114:	e31200ff 	tst	r2, #255	; 0xff
    1118:	13120cff 	tstne	r2, #65280	; 0xff00
    111c:	131208ff 	tstne	r2, #16711680	; 0xff0000
    1120:	131204ff 	tstne	r2, #-16777216	; 0xff000000
    1124:	14862004 	strne	r2, [r6], #4
    1128:	02411004 	subeq	r1, r1, #4
    112c:	131300ff 	tstne	r3, #255	; 0xff
    1130:	13130cff 	tstne	r3, #65280	; 0xff00
    1134:	131308ff 	tstne	r3, #16711680	; 0xff0000
    1138:	131304ff 	tstne	r3, #-16777216	; 0xff000000
    113c:	14863004 	strne	r3, [r6], #4
    1140:	02411004 	subeq	r1, r1, #4
    1144:	131400ff 	tstne	r4, #255	; 0xff
    1148:	13140cff 	tstne	r4, #65280	; 0xff00
    114c:	131408ff 	tstne	r4, #16711680	; 0xff0000
    1150:	131404ff 	tstne	r4, #-16777216	; 0xff000000
    1154:	14864004 	strne	r4, [r6], #4
    1158:	02411004 	subeq	r1, r1, #4
    115c:	131500ff 	tstne	r5, #255	; 0xff
    1160:	13150cff 	tstne	r5, #65280	; 0xff00
    1164:	131508ff 	tstne	r5, #16711680	; 0xff0000
    1168:	131504ff 	tstne	r5, #-16777216	; 0xff000000
    116c:	14865004 	strne	r5, [r6], #4
    1170:	02411004 	subeq	r1, r1, #4
    1174:	1affffe5 	bne	1110 <strcpy_fast>

00001178 <strcpy_aligned_slow>:
    1178:	e4913004 	ldr	r3, [r1], #4
    117c:	e4c63001 	strb	r3, [r6], #1
    1180:	e21340ff 	ands	r4, r3, #255	; 0xff
    1184:	08fd8070 	ldmeq	sp!, {r4, r5, r6, pc}^
    1188:	e1a03423 	lsr	r3, r3, #8
    118c:	e4c63001 	strb	r3, [r6], #1
    1190:	e21340ff 	ands	r4, r3, #255	; 0xff
    1194:	08fd8070 	ldmeq	sp!, {r4, r5, r6, pc}^
    1198:	e1a03423 	lsr	r3, r3, #8
    119c:	e4c63001 	strb	r3, [r6], #1
    11a0:	e21340ff 	ands	r4, r3, #255	; 0xff
    11a4:	08fd8070 	ldmeq	sp!, {r4, r5, r6, pc}^
    11a8:	e1a03423 	lsr	r3, r3, #8
    11ac:	e4c63001 	strb	r3, [r6], #1
    11b0:	e21340ff 	ands	r4, r3, #255	; 0xff
    11b4:	08fd8070 	ldmeq	sp!, {r4, r5, r6, pc}^
    11b8:	eaffffee 	b	1178 <strcpy_aligned_slow>

000011bc <strcpy_slow>:
    11bc:	e4d13001 	ldrb	r3, [r1], #1
    11c0:	e4c63001 	strb	r3, [r6], #1
    11c4:	e3530000 	cmp	r3, #0
    11c8:	08fd8070 	ldmeq	sp!, {r4, r5, r6, pc}^
    11cc:	e4d13001 	ldrb	r3, [r1], #1
    11d0:	e4c63001 	strb	r3, [r6], #1
    11d4:	e3530000 	cmp	r3, #0
    11d8:	08fd8070 	ldmeq	sp!, {r4, r5, r6, pc}^
    11dc:	e4d13001 	ldrb	r3, [r1], #1
    11e0:	e4c63001 	strb	r3, [r6], #1
    11e4:	e3530000 	cmp	r3, #0
    11e8:	08fd8070 	ldmeq	sp!, {r4, r5, r6, pc}^
    11ec:	e4d13001 	ldrb	r3, [r1], #1
    11f0:	e4c63001 	strb	r3, [r6], #1
    11f4:	e3530000 	cmp	r3, #0
    11f8:	08fd8070 	ldmeq	sp!, {r4, r5, r6, pc}^
    11fc:	eaffffee 	b	11bc <strcpy_slow>

00001200 <strcmp>:
    1200:	e92d41f0 	push	{r4, r5, r6, r7, r8, lr}
    1204:	e1802001 	orr	r2, r0, r1
    1208:	e3120003 	tst	r2, #3
    120c:	1a000018 	bne	1274 <strcmp_slow>

00001210 <strcmp_fast>:
    1210:	e8b0001c 	ldm	r0!, {r2, r3, r4}
    1214:	e8b100e0 	ldm	r1!, {r5, r6, r7}
    1218:	e1520005 	cmp	r2, r5
    121c:	1a000012 	bne	126c <strcmp_fast+0x5c>
    1220:	01530006 	cmpeq	r3, r6
    1224:	1a00002b 	bne	12d8 <strcmp_slow+0x64>
    1228:	01540007 	cmpeq	r4, r7
    122c:	1a000049 	bne	1358 <strcmp_slow+0xe4>
    1230:	e31200ff 	tst	r2, #255	; 0xff
    1234:	13120cff 	tstne	r2, #65280	; 0xff00
    1238:	131208ff 	tstne	r2, #16711680	; 0xff0000
    123c:	131204ff 	tstne	r2, #-16777216	; 0xff000000
    1240:	131300ff 	tstne	r3, #255	; 0xff
    1244:	13130cff 	tstne	r3, #65280	; 0xff00
    1248:	131308ff 	tstne	r3, #16711680	; 0xff0000
    124c:	131304ff 	tstne	r3, #-16777216	; 0xff000000
    1250:	131400ff 	tstne	r4, #255	; 0xff
    1254:	13140cff 	tstne	r4, #65280	; 0xff00
    1258:	131408ff 	tstne	r4, #16711680	; 0xff0000
    125c:	131404ff 	tstne	r4, #-16777216	; 0xff000000
    1260:	1affffea 	bne	1210 <strcmp_fast>
    1264:	03a00000 	moveq	r0, #0
    1268:	08fd81f0 	ldmeq	sp!, {r4, r5, r6, r7, r8, pc}^
    126c:	e240000c 	sub	r0, r0, #12
    1270:	e241100c 	sub	r1, r1, #12

00001274 <strcmp_slow>:
    1274:	e4d02001 	ldrb	r2, [r0], #1
    1278:	e4d13001 	ldrb	r3, [r1], #1
    127c:	e0324003 	eors	r4, r2, r3
    1280:	1a00005a 	bne	13f0 <bytes_different>
    1284:	e4d05001 	ldrb	r5, [r0], #1
    1288:	e4d16001 	ldrb	r6, [r1], #1
    128c:	e3520000 	cmp	r2, #0
    1290:	0a000054 	beq	13e8 <bytes_zero>
    1294:	e0357006 	eors	r7, r5, r6
    1298:	1a000054 	bne	13f0 <bytes_different>
    129c:	e4d02001 	ldrb	r2, [r0], #1
    12a0:	e4d13001 	ldrb	r3, [r1], #1
    12a4:	e3550000 	cmp	r5, #0
    12a8:	0a00004e 	beq	13e8 <bytes_zero>
    12ac:	e0324003 	eors	r4, r2, r3
    12b0:	1a00004e 	bne	13f0 <bytes_different>
    12b4:	e4d05001 	ldrb	r5, [r0], #1
    12b8:	e4d16001 	ldrb	r6, [r1], #1
    12bc:	e3520000 	cmp	r2, #0
    12c0:	0a000048 	beq	13e8 <bytes_zero>
    12c4:	e0357006 	eors	r7, r5, r6
    12c8:	1a000048 	bne	13f0 <bytes_different>
    12cc:	e3550000 	cmp	r5, #0
    12d0:	0a000044 	beq	13e8 <bytes_zero>
    12d4:	1affffe6 	bne	1274 <strcmp_slow>
    12d8:	e31200ff 	tst	r2, #255	; 0xff
    12dc:	13120cff 	tstne	r2, #65280	; 0xff00
    12e0:	131208ff 	tstne	r2, #16711680	; 0xff0000
    12e4:	131204ff 	tstne	r2, #-16777216	; 0xff000000
    12e8:	0a00003e 	beq	13e8 <bytes_zero>
    12ec:	e2400008 	sub	r0, r0, #8
    12f0:	e2411008 	sub	r1, r1, #8
    12f4:	e4d02001 	ldrb	r2, [r0], #1
    12f8:	e4d13001 	ldrb	r3, [r1], #1
    12fc:	e0324003 	eors	r4, r2, r3
    1300:	1a00003a 	bne	13f0 <bytes_different>
    1304:	e4d05001 	ldrb	r5, [r0], #1
    1308:	e4d16001 	ldrb	r6, [r1], #1
    130c:	e3520000 	cmp	r2, #0
    1310:	0a000034 	beq	13e8 <bytes_zero>
    1314:	e0357006 	eors	r7, r5, r6
    1318:	1a000034 	bne	13f0 <bytes_different>
    131c:	e4d02001 	ldrb	r2, [r0], #1
    1320:	e4d13001 	ldrb	r3, [r1], #1
    1324:	e3550000 	cmp	r5, #0
    1328:	0a00002e 	beq	13e8 <bytes_zero>
    132c:	e0324003 	eors	r4, r2, r3
    1330:	1a00002e 	bne	13f0 <bytes_different>
    1334:	e4d05001 	ldrb	r5, [r0], #1
    1338:	e4d16001 	ldrb	r6, [r1], #1
    133c:	e3520000 	cmp	r2, #0
    1340:	0a000028 	beq	13e8 <bytes_zero>
    1344:	e0357006 	eors	r7, r5, r6
    1348:	1a000028 	bne	13f0 <bytes_different>
    134c:	e3550000 	cmp	r5, #0
    1350:	0a000024 	beq	13e8 <bytes_zero>
    1354:	1affffc6 	bne	1274 <strcmp_slow>
    1358:	e31200ff 	tst	r2, #255	; 0xff
    135c:	13120cff 	tstne	r2, #65280	; 0xff00
    1360:	131208ff 	tstne	r2, #16711680	; 0xff0000
    1364:	131204ff 	tstne	r2, #-16777216	; 0xff000000
    1368:	131300ff 	tstne	r3, #255	; 0xff
    136c:	13130cff 	tstne	r3, #65280	; 0xff00
    1370:	131308ff 	tstne	r3, #16711680	; 0xff0000
    1374:	131304ff 	tstne	r3, #-16777216	; 0xff000000
    1378:	0a00001a 	beq	13e8 <bytes_zero>
    137c:	e2400004 	sub	r0, r0, #4
    1380:	e2411004 	sub	r1, r1, #4
    1384:	e4d02001 	ldrb	r2, [r0], #1
    1388:	e4d13001 	ldrb	r3, [r1], #1
    138c:	e0324003 	eors	r4, r2, r3
    1390:	1a000016 	bne	13f0 <bytes_different>
    1394:	e4d05001 	ldrb	r5, [r0], #1
    1398:	e4d16001 	ldrb	r6, [r1], #1
    139c:	e3520000 	cmp	r2, #0
    13a0:	0a000010 	beq	13e8 <bytes_zero>
    13a4:	e0357006 	eors	r7, r5, r6
    13a8:	1a000010 	bne	13f0 <bytes_different>
    13ac:	e4d02001 	ldrb	r2, [r0], #1
    13b0:	e4d13001 	ldrb	r3, [r1], #1
    13b4:	e3550000 	cmp	r5, #0
    13b8:	0a00000a 	beq	13e8 <bytes_zero>
    13bc:	e0324003 	eors	r4, r2, r3
    13c0:	1a00000a 	bne	13f0 <bytes_different>
    13c4:	e4d05001 	ldrb	r5, [r0], #1
    13c8:	e4d16001 	ldrb	r6, [r1], #1
    13cc:	e3520000 	cmp	r2, #0
    13d0:	0a000004 	beq	13e8 <bytes_zero>
    13d4:	e0357006 	eors	r7, r5, r6
    13d8:	1a000004 	bne	13f0 <bytes_different>
    13dc:	e3550000 	cmp	r5, #0
    13e0:	0a000000 	beq	13e8 <bytes_zero>
    13e4:	1affffa2 	bne	1274 <strcmp_slow>

000013e8 <bytes_zero>:
    13e8:	03a00000 	moveq	r0, #0
    13ec:	08fd81f0 	ldmeq	sp!, {r4, r5, r6, r7, r8, pc}^

000013f0 <bytes_different>:
    13f0:	e0450006 	sub	r0, r5, r6
    13f4:	e8fd81f0 	ldm	sp!, {r4, r5, r6, r7, r8, pc}^

000013f8 <init_malloc>:
    13f8:	e59f107c 	ldr	r1, [pc, #124]	; 147c <AdrMalloc>
    13fc:	e5811000 	str	r1, [r1]
    1400:	e1a0f00e 	mov	pc, lr

00001404 <malloc>:
    1404:	e59f1070 	ldr	r1, [pc, #112]	; 147c <AdrMalloc>
    1408:	e5910000 	ldr	r0, [r1]
    140c:	e2800801 	add	r0, r0, #65536	; 0x10000
    1410:	e5810000 	str	r0, [r1]
    1414:	e1a0f00e 	mov	pc, lr

00001418 <strncpy>:
    1418:	e92d4010 	push	{r4, lr}
    141c:	e3520000 	cmp	r2, #0
    1420:	0a000004 	beq	1438 <strncpy+0x20>
    1424:	e0804002 	add	r4, r0, r2
    1428:	e4d13001 	ldrb	r3, [r1], #1
    142c:	e4c03001 	strb	r3, [r0], #1
    1430:	e1500004 	cmp	r0, r4
    1434:	1afffffb 	bne	1428 <strncpy+0x10>
    1438:	e8fd8010 	ldm	sp!, {r4, pc}^

0000143c <strncmp>:
    143c:	e92d4070 	push	{r4, r5, r6, lr}
    1440:	e3520000 	cmp	r2, #0
    1444:	03a00001 	moveq	r0, #1
    1448:	0a00000a 	beq	1478 <strncmp+0x3c>
    144c:	e3a03000 	mov	r3, #0
    1450:	e2833001 	add	r3, r3, #1
    1454:	e4d04001 	ldrb	r4, [r0], #1
    1458:	e4d15001 	ldrb	r5, [r1], #1
    145c:	e0546005 	subs	r6, r4, r5
    1460:	11a00006 	movne	r0, r6
    1464:	1a000003 	bne	1478 <strncmp+0x3c>
    1468:	e1530002 	cmp	r3, r2
    146c:	03a00000 	moveq	r0, #0
    1470:	0a000000 	beq	1478 <strncmp+0x3c>
    1474:	eafffff5 	b	1450 <strncmp+0x14>
    1478:	e8fd8070 	ldm	sp!, {r4, r5, r6, pc}^

0000147c <AdrMalloc>:
    147c:	07000000 	.word	0x07000000

00001480 <AdrTestStatus>:
    1480:	f0000000 	.word	0xf0000000

00001484 <AdrUARTDR>:
    1484:	16000000 	.word	0x16000000

00001488 <AdrUARTFR>:
    1488:	16000018 	.word	0x16000018

0000148c <memcpy>:
    148c:	e92d43f0 	push	{r4, r5, r6, r7, r8, r9, lr}
    1490:	e3520007 	cmp	r2, #7
    1494:	81a03000 	movhi	r3, r0
    1498:	80802002 	addhi	r2, r0, r2
    149c:	8a000031 	bhi	1568 <memcpy+0xdc>
    14a0:	e2422001 	sub	r2, r2, #1
    14a4:	e3520006 	cmp	r2, #6
    14a8:	979ff102 	ldrls	pc, [pc, r2, lsl #2]
    14ac:	ea000132 	b	197c <memcpy+0x4f0>
    14b0:	00001558 	.word	0x00001558
    14b4:	00001540 	.word	0x00001540
    14b8:	00001528 	.word	0x00001528
    14bc:	00001510 	.word	0x00001510
    14c0:	000014f8 	.word	0x000014f8
    14c4:	000014e0 	.word	0x000014e0
    14c8:	000014cc 	.word	0x000014cc
    14cc:	e2803001 	add	r3, r0, #1
    14d0:	e5d12000 	ldrb	r2, [r1]
    14d4:	e5c02000 	strb	r2, [r0]
    14d8:	e2811001 	add	r1, r1, #1
    14dc:	ea000000 	b	14e4 <memcpy+0x58>
    14e0:	e1a03000 	mov	r3, r0
    14e4:	e2832001 	add	r2, r3, #1
    14e8:	e5d1c000 	ldrb	ip, [r1]
    14ec:	e5c3c000 	strb	ip, [r3]
    14f0:	e2811001 	add	r1, r1, #1
    14f4:	ea000000 	b	14fc <memcpy+0x70>
    14f8:	e1a02000 	mov	r2, r0
    14fc:	e2823001 	add	r3, r2, #1
    1500:	e5d1c000 	ldrb	ip, [r1]
    1504:	e5c2c000 	strb	ip, [r2]
    1508:	e2811001 	add	r1, r1, #1
    150c:	ea000000 	b	1514 <memcpy+0x88>
    1510:	e1a03000 	mov	r3, r0
    1514:	e2832001 	add	r2, r3, #1
    1518:	e5d1c000 	ldrb	ip, [r1]
    151c:	e5c3c000 	strb	ip, [r3]
    1520:	e2811001 	add	r1, r1, #1
    1524:	ea000000 	b	152c <memcpy+0xa0>
    1528:	e1a02000 	mov	r2, r0
    152c:	e2823001 	add	r3, r2, #1
    1530:	e5d1c000 	ldrb	ip, [r1]
    1534:	e5c2c000 	strb	ip, [r2]
    1538:	e2811001 	add	r1, r1, #1
    153c:	ea000000 	b	1544 <memcpy+0xb8>
    1540:	e1a03000 	mov	r3, r0
    1544:	e2832001 	add	r2, r3, #1
    1548:	e5d1c000 	ldrb	ip, [r1]
    154c:	e5c3c000 	strb	ip, [r3]
    1550:	e2811001 	add	r1, r1, #1
    1554:	ea000000 	b	155c <memcpy+0xd0>
    1558:	e1a02000 	mov	r2, r0
    155c:	e5d13000 	ldrb	r3, [r1]
    1560:	e5c23000 	strb	r3, [r2]
    1564:	e8bd83f0 	pop	{r4, r5, r6, r7, r8, r9, pc}
    1568:	e063c002 	rsb	ip, r3, r2
    156c:	e3130003 	tst	r3, #3
    1570:	14d1c001 	ldrbne	ip, [r1], #1
    1574:	14c3c001 	strbne	ip, [r3], #1
    1578:	1afffffa 	bne	1568 <memcpy+0xdc>
    157c:	e2012003 	and	r2, r1, #3
    1580:	e3520002 	cmp	r2, #2
    1584:	e1a0412c 	lsr	r4, ip, #2
    1588:	0a00006e 	beq	1748 <memcpy+0x2bc>
    158c:	e3520003 	cmp	r2, #3
    1590:	0a0000ae 	beq	1850 <memcpy+0x3c4>
    1594:	e3520001 	cmp	r2, #1
    1598:	0a000029 	beq	1644 <memcpy+0x1b8>
    159c:	e3140007 	tst	r4, #7
    15a0:	14912004 	ldrne	r2, [r1], #4
    15a4:	14832004 	strne	r2, [r3], #4
    15a8:	12444001 	subne	r4, r4, #1
    15ac:	1afffffa 	bne	159c <memcpy+0x110>
    15b0:	e1a06001 	mov	r6, r1
    15b4:	e1a05003 	mov	r5, r3
    15b8:	e1a041a4 	lsr	r4, r4, #3
    15bc:	e1a02004 	mov	r2, r4
    15c0:	e2522001 	subs	r2, r2, #1
    15c4:	3a000012 	bcc	1614 <memcpy+0x188>
    15c8:	e5917000 	ldr	r7, [r1]
    15cc:	e5837000 	str	r7, [r3]
    15d0:	e5917004 	ldr	r7, [r1, #4]
    15d4:	e5837004 	str	r7, [r3, #4]
    15d8:	e5917008 	ldr	r7, [r1, #8]
    15dc:	e5837008 	str	r7, [r3, #8]
    15e0:	e591700c 	ldr	r7, [r1, #12]
    15e4:	e583700c 	str	r7, [r3, #12]
    15e8:	e5917010 	ldr	r7, [r1, #16]
    15ec:	e5837010 	str	r7, [r3, #16]
    15f0:	e5917014 	ldr	r7, [r1, #20]
    15f4:	e5837014 	str	r7, [r3, #20]
    15f8:	e5917018 	ldr	r7, [r1, #24]
    15fc:	e5837018 	str	r7, [r3, #24]
    1600:	e591701c 	ldr	r7, [r1, #28]
    1604:	e583701c 	str	r7, [r3, #28]
    1608:	e2833020 	add	r3, r3, #32
    160c:	e2811020 	add	r1, r1, #32
    1610:	eaffffea 	b	15c0 <memcpy+0x134>
    1614:	e1a02284 	lsl	r2, r4, #5
    1618:	e0853002 	add	r3, r5, r2
    161c:	e0862002 	add	r2, r6, r2
    1620:	e20cc003 	and	ip, ip, #3
    1624:	e35c0002 	cmp	ip, #2
    1628:	0a0000cd 	beq	1964 <memcpy+0x4d8>
    162c:	e35c0003 	cmp	ip, #3
    1630:	1a0000c4 	bne	1948 <memcpy+0x4bc>
    1634:	e7d61284 	ldrb	r1, [r6, r4, lsl #5]
    1638:	e7c51284 	strb	r1, [r5, r4, lsl #5]
    163c:	e2822001 	add	r2, r2, #1
    1640:	ea0000c6 	b	1960 <memcpy+0x4d4>
    1644:	e3c33003 	bic	r3, r3, #3
    1648:	e3c11003 	bic	r1, r1, #3
    164c:	e2812004 	add	r2, r1, #4
    1650:	e5911000 	ldr	r1, [r1]
    1654:	e3140007 	tst	r4, #7
    1658:	0a000005 	beq	1674 <memcpy+0x1e8>
    165c:	e1a05421 	lsr	r5, r1, #8
    1660:	e4921004 	ldr	r1, [r2], #4
    1664:	e1855c01 	orr	r5, r5, r1, lsl #24
    1668:	e4835004 	str	r5, [r3], #4
    166c:	e2444001 	sub	r4, r4, #1
    1670:	eafffff7 	b	1654 <memcpy+0x1c8>
    1674:	e1a08002 	mov	r8, r2
    1678:	e1a06003 	mov	r6, r3
    167c:	e1a041a4 	lsr	r4, r4, #3
    1680:	e1a05004 	mov	r5, r4
    1684:	e2555001 	subs	r5, r5, #1
    1688:	3a000022 	bcc	1718 <memcpy+0x28c>
    168c:	e5927000 	ldr	r7, [r2]
    1690:	e1a09c07 	lsl	r9, r7, #24
    1694:	e1891421 	orr	r1, r9, r1, lsr #8
    1698:	e5831000 	str	r1, [r3]
    169c:	e5921004 	ldr	r1, [r2, #4]
    16a0:	e1a09c01 	lsl	r9, r1, #24
    16a4:	e1897427 	orr	r7, r9, r7, lsr #8
    16a8:	e5837004 	str	r7, [r3, #4]
    16ac:	e5927008 	ldr	r7, [r2, #8]
    16b0:	e1a09c07 	lsl	r9, r7, #24
    16b4:	e1891421 	orr	r1, r9, r1, lsr #8
    16b8:	e5831008 	str	r1, [r3, #8]
    16bc:	e592100c 	ldr	r1, [r2, #12]
    16c0:	e1a09c01 	lsl	r9, r1, #24
    16c4:	e1897427 	orr	r7, r9, r7, lsr #8
    16c8:	e583700c 	str	r7, [r3, #12]
    16cc:	e5927010 	ldr	r7, [r2, #16]
    16d0:	e1a09c07 	lsl	r9, r7, #24
    16d4:	e1891421 	orr	r1, r9, r1, lsr #8
    16d8:	e5831010 	str	r1, [r3, #16]
    16dc:	e5921014 	ldr	r1, [r2, #20]
    16e0:	e1a09c01 	lsl	r9, r1, #24
    16e4:	e1897427 	orr	r7, r9, r7, lsr #8
    16e8:	e5837014 	str	r7, [r3, #20]
    16ec:	e5927018 	ldr	r7, [r2, #24]
    16f0:	e1a09c07 	lsl	r9, r7, #24
    16f4:	e1891421 	orr	r1, r9, r1, lsr #8
    16f8:	e5831018 	str	r1, [r3, #24]
    16fc:	e592101c 	ldr	r1, [r2, #28]
    1700:	e1a09c01 	lsl	r9, r1, #24
    1704:	e1897427 	orr	r7, r9, r7, lsr #8
    1708:	e583701c 	str	r7, [r3, #28]
    170c:	e2833020 	add	r3, r3, #32
    1710:	e2822020 	add	r2, r2, #32
    1714:	eaffffda 	b	1684 <memcpy+0x1f8>
    1718:	e1a02284 	lsl	r2, r4, #5
    171c:	e0863002 	add	r3, r6, r2
    1720:	e0881002 	add	r1, r8, r2
    1724:	e2412003 	sub	r2, r1, #3
    1728:	e20cc003 	and	ip, ip, #3
    172c:	e35c0002 	cmp	ip, #2
    1730:	0a00008b 	beq	1964 <memcpy+0x4d8>
    1734:	e35c0003 	cmp	ip, #3
    1738:	1a000082 	bne	1948 <memcpy+0x4bc>
    173c:	e2412002 	sub	r2, r1, #2
    1740:	e5511003 	ldrb	r1, [r1, #-3]
    1744:	ea00003f 	b	1848 <memcpy+0x3bc>
    1748:	e3c33003 	bic	r3, r3, #3
    174c:	e3c11003 	bic	r1, r1, #3
    1750:	e2812004 	add	r2, r1, #4
    1754:	e5911000 	ldr	r1, [r1]
    1758:	e3140007 	tst	r4, #7
    175c:	0a000005 	beq	1778 <memcpy+0x2ec>
    1760:	e1a05821 	lsr	r5, r1, #16
    1764:	e4921004 	ldr	r1, [r2], #4
    1768:	e1855801 	orr	r5, r5, r1, lsl #16
    176c:	e4835004 	str	r5, [r3], #4
    1770:	e2444001 	sub	r4, r4, #1
    1774:	eafffff7 	b	1758 <memcpy+0x2cc>
    1778:	e1a08002 	mov	r8, r2
    177c:	e1a06003 	mov	r6, r3
    1780:	e1a041a4 	lsr	r4, r4, #3
    1784:	e1a05004 	mov	r5, r4
    1788:	e2555001 	subs	r5, r5, #1
    178c:	3a000022 	bcc	181c <memcpy+0x390>
    1790:	e5927000 	ldr	r7, [r2]
    1794:	e1a09807 	lsl	r9, r7, #16
    1798:	e1891821 	orr	r1, r9, r1, lsr #16
    179c:	e5831000 	str	r1, [r3]
    17a0:	e5921004 	ldr	r1, [r2, #4]
    17a4:	e1a09801 	lsl	r9, r1, #16
    17a8:	e1897827 	orr	r7, r9, r7, lsr #16
    17ac:	e5837004 	str	r7, [r3, #4]
    17b0:	e5927008 	ldr	r7, [r2, #8]
    17b4:	e1a09807 	lsl	r9, r7, #16
    17b8:	e1891821 	orr	r1, r9, r1, lsr #16
    17bc:	e5831008 	str	r1, [r3, #8]
    17c0:	e592100c 	ldr	r1, [r2, #12]
    17c4:	e1a09801 	lsl	r9, r1, #16
    17c8:	e1897827 	orr	r7, r9, r7, lsr #16
    17cc:	e583700c 	str	r7, [r3, #12]
    17d0:	e5927010 	ldr	r7, [r2, #16]
    17d4:	e1a09807 	lsl	r9, r7, #16
    17d8:	e1891821 	orr	r1, r9, r1, lsr #16
    17dc:	e5831010 	str	r1, [r3, #16]
    17e0:	e5921014 	ldr	r1, [r2, #20]
    17e4:	e1a09801 	lsl	r9, r1, #16
    17e8:	e1897827 	orr	r7, r9, r7, lsr #16
    17ec:	e5837014 	str	r7, [r3, #20]
    17f0:	e5927018 	ldr	r7, [r2, #24]
    17f4:	e1a09807 	lsl	r9, r7, #16
    17f8:	e1891821 	orr	r1, r9, r1, lsr #16
    17fc:	e5831018 	str	r1, [r3, #24]
    1800:	e592101c 	ldr	r1, [r2, #28]
    1804:	e1a09801 	lsl	r9, r1, #16
    1808:	e1897827 	orr	r7, r9, r7, lsr #16
    180c:	e583701c 	str	r7, [r3, #28]
    1810:	e2833020 	add	r3, r3, #32
    1814:	e2822020 	add	r2, r2, #32
    1818:	eaffffda 	b	1788 <memcpy+0x2fc>
    181c:	e1a02284 	lsl	r2, r4, #5
    1820:	e0863002 	add	r3, r6, r2
    1824:	e0881002 	add	r1, r8, r2
    1828:	e2412002 	sub	r2, r1, #2
    182c:	e20cc003 	and	ip, ip, #3
    1830:	e35c0002 	cmp	ip, #2
    1834:	0a00004a 	beq	1964 <memcpy+0x4d8>
    1838:	e35c0003 	cmp	ip, #3
    183c:	1a000041 	bne	1948 <memcpy+0x4bc>
    1840:	e2412001 	sub	r2, r1, #1
    1844:	e5511002 	ldrb	r1, [r1, #-2]
    1848:	e7c61284 	strb	r1, [r6, r4, lsl #5]
    184c:	ea000043 	b	1960 <memcpy+0x4d4>
    1850:	e3c33003 	bic	r3, r3, #3
    1854:	e3c11003 	bic	r1, r1, #3
    1858:	e2812004 	add	r2, r1, #4
    185c:	e5911000 	ldr	r1, [r1]
    1860:	e3140007 	tst	r4, #7
    1864:	0a000005 	beq	1880 <memcpy+0x3f4>
    1868:	e1a05c21 	lsr	r5, r1, #24
    186c:	e4921004 	ldr	r1, [r2], #4
    1870:	e1855401 	orr	r5, r5, r1, lsl #8
    1874:	e4835004 	str	r5, [r3], #4
    1878:	e2444001 	sub	r4, r4, #1
    187c:	eafffff7 	b	1860 <memcpy+0x3d4>
    1880:	e1a08002 	mov	r8, r2
    1884:	e1a06003 	mov	r6, r3
    1888:	e1a041a4 	lsr	r4, r4, #3
    188c:	e1a05004 	mov	r5, r4
    1890:	e2555001 	subs	r5, r5, #1
    1894:	3a000022 	bcc	1924 <memcpy+0x498>
    1898:	e5927000 	ldr	r7, [r2]
    189c:	e1a09407 	lsl	r9, r7, #8
    18a0:	e1891c21 	orr	r1, r9, r1, lsr #24
    18a4:	e5831000 	str	r1, [r3]
    18a8:	e5921004 	ldr	r1, [r2, #4]
    18ac:	e1a09401 	lsl	r9, r1, #8
    18b0:	e1897c27 	orr	r7, r9, r7, lsr #24
    18b4:	e5837004 	str	r7, [r3, #4]
    18b8:	e5927008 	ldr	r7, [r2, #8]
    18bc:	e1a09407 	lsl	r9, r7, #8
    18c0:	e1891c21 	orr	r1, r9, r1, lsr #24
    18c4:	e5831008 	str	r1, [r3, #8]
    18c8:	e592100c 	ldr	r1, [r2, #12]
    18cc:	e1a09401 	lsl	r9, r1, #8
    18d0:	e1897c27 	orr	r7, r9, r7, lsr #24
    18d4:	e583700c 	str	r7, [r3, #12]
    18d8:	e5927010 	ldr	r7, [r2, #16]
    18dc:	e1a09407 	lsl	r9, r7, #8
    18e0:	e1891c21 	orr	r1, r9, r1, lsr #24
    18e4:	e5831010 	str	r1, [r3, #16]
    18e8:	e5921014 	ldr	r1, [r2, #20]
    18ec:	e1a09401 	lsl	r9, r1, #8
    18f0:	e1897c27 	orr	r7, r9, r7, lsr #24
    18f4:	e5837014 	str	r7, [r3, #20]
    18f8:	e5927018 	ldr	r7, [r2, #24]
    18fc:	e1a09407 	lsl	r9, r7, #8
    1900:	e1891c21 	orr	r1, r9, r1, lsr #24
    1904:	e5831018 	str	r1, [r3, #24]
    1908:	e592101c 	ldr	r1, [r2, #28]
    190c:	e1a09401 	lsl	r9, r1, #8
    1910:	e1897c27 	orr	r7, r9, r7, lsr #24
    1914:	e583701c 	str	r7, [r3, #28]
    1918:	e2833020 	add	r3, r3, #32
    191c:	e2822020 	add	r2, r2, #32
    1920:	eaffffda 	b	1890 <memcpy+0x404>
    1924:	e1a02284 	lsl	r2, r4, #5
    1928:	e0863002 	add	r3, r6, r2
    192c:	e0881002 	add	r1, r8, r2
    1930:	e2412001 	sub	r2, r1, #1
    1934:	e20cc003 	and	ip, ip, #3
    1938:	e35c0002 	cmp	ip, #2
    193c:	0a000008 	beq	1964 <memcpy+0x4d8>
    1940:	e35c0003 	cmp	ip, #3
    1944:	0a000002 	beq	1954 <memcpy+0x4c8>
    1948:	e35c0001 	cmp	ip, #1
    194c:	18bd83f0 	popne	{r4, r5, r6, r7, r8, r9, pc}
    1950:	ea000007 	b	1974 <memcpy+0x4e8>
    1954:	e5512001 	ldrb	r2, [r1, #-1]
    1958:	e7c62284 	strb	r2, [r6, r4, lsl #5]
    195c:	e1a02001 	mov	r2, r1
    1960:	e2833001 	add	r3, r3, #1
    1964:	e5d21000 	ldrb	r1, [r2]
    1968:	e5c31000 	strb	r1, [r3]
    196c:	e2822001 	add	r2, r2, #1
    1970:	e2833001 	add	r3, r3, #1
    1974:	e5d22000 	ldrb	r2, [r2]
    1978:	e5c32000 	strb	r2, [r3]
    197c:	e8bd83f0 	pop	{r4, r5, r6, r7, r8, r9, pc}

Disassembly of section .text.startup:

00001980 <main>:
    1980:	e92d43f0 	push	{r4, r5, r6, r7, r8, r9, lr}
    1984:	e24dd02c 	sub	sp, sp, #44	; 0x2c
    1988:	e3a02010 	mov	r2, #16
    198c:	e3a03416 	mov	r3, #369098752	; 0x16000000
    1990:	e5832008 	str	r2, [r3, #8]
    1994:	e59f0174 	ldr	r0, [pc, #372]	; 1b10 <main+0x190>
    1998:	e3a0100c 	mov	r1, #12
    199c:	e59f2170 	ldr	r2, [pc, #368]	; 1b14 <main+0x194>
    19a0:	ebfffd8d 	bl	fdc <printf>
    19a4:	e3a0320f 	mov	r3, #-268435456	; 0xf0000000
    19a8:	e593001c 	ldr	r0, [r3, #28]
    19ac:	e3500000 	cmp	r0, #0
    19b0:	13a01000 	movne	r1, #0
    19b4:	1bfffa48 	blne	2dc <load_run>
    19b8:	ebfff9ff 	bl	1bc <print_help>
    19bc:	e59f0154 	ldr	r0, [pc, #340]	; 1b18 <main+0x198>
    19c0:	ebfffd85 	bl	fdc <printf>
    19c4:	e3a07000 	mov	r7, #0
    19c8:	e1a04007 	mov	r4, r7
    19cc:	e1a05007 	mov	r5, r7
    19d0:	e1a09007 	mov	r9, r7
    19d4:	e3a00ffa 	mov	r0, #1000	; 0x3e8
    19d8:	ebfffd9a 	bl	1048 <_inbyte>
    19dc:	e2506000 	subs	r6, r0, #0
    19e0:	bafffffb 	blt	19d4 <main+0x54>
    19e4:	e356001b 	cmp	r6, #27
    19e8:	03a05001 	moveq	r5, #1
    19ec:	0a000026 	beq	1a8c <main+0x10c>
    19f0:	e356005b 	cmp	r6, #91	; 0x5b
    19f4:	03550001 	cmpeq	r5, #1
    19f8:	13a08000 	movne	r8, #0
    19fc:	03a08001 	moveq	r8, #1
    1a00:	03a05002 	moveq	r5, #2
    1a04:	0a000020 	beq	1a8c <main+0x10c>
    1a08:	e3550002 	cmp	r5, #2
    1a0c:	1a000014 	bne	1a64 <main+0xe4>
    1a10:	e3560041 	cmp	r6, #65	; 0x41
    1a14:	11a05008 	movne	r5, r8
    1a18:	1affffed 	bne	19d4 <main+0x54>
    1a1c:	e1580004 	cmp	r8, r4
    1a20:	aa000003 	bge	1a34 <main+0xb4>
    1a24:	e3a00008 	mov	r0, #8
    1a28:	ebfffd7e 	bl	1028 <_outbyte>
    1a2c:	e2888001 	add	r8, r8, #1
    1a30:	eafffff9 	b	1a1c <main+0x9c>
    1a34:	e3a04000 	mov	r4, #0
    1a38:	e1540007 	cmp	r4, r7
    1a3c:	aa000005 	bge	1a58 <main+0xd8>
    1a40:	e28d3014 	add	r3, sp, #20
    1a44:	e7d40003 	ldrb	r0, [r4, r3]
    1a48:	e7cd0004 	strb	r0, [sp, r4]
    1a4c:	ebfffd75 	bl	1028 <_outbyte>
    1a50:	e2844001 	add	r4, r4, #1
    1a54:	eafffff7 	b	1a38 <main+0xb8>
    1a58:	e1a04007 	mov	r4, r7
    1a5c:	e3a05000 	mov	r5, #0
    1a60:	eaffffdb 	b	19d4 <main+0x54>
    1a64:	ebfffd6f 	bl	1028 <_outbyte>
    1a68:	e2563008 	subs	r3, r6, #8
    1a6c:	e2735000 	rsbs	r5, r3, #0
    1a70:	e0b55003 	adcs	r5, r5, r3
    1a74:	e3540000 	cmp	r4, #0
    1a78:	d3a05000 	movle	r5, #0
    1a7c:	e3550000 	cmp	r5, #0
    1a80:	0a00001d 	beq	1afc <main+0x17c>
    1a84:	e2444001 	sub	r4, r4, #1
    1a88:	e1a05008 	mov	r5, r8
    1a8c:	e256200d 	subs	r2, r6, #13
    1a90:	e2726000 	rsbs	r6, r2, #0
    1a94:	e0b66002 	adcs	r6, r6, r2
    1a98:	e3540012 	cmp	r4, #18
    1a9c:	c3866001 	orrgt	r6, r6, #1
    1aa0:	e3560000 	cmp	r6, #0
    1aa4:	0affffca 	beq	19d4 <main+0x54>
    1aa8:	e3540001 	cmp	r4, #1
    1aac:	da000007 	ble	1ad0 <main+0x150>
    1ab0:	e3a03000 	mov	r3, #0
    1ab4:	e7dd1003 	ldrb	r1, [sp, r3]
    1ab8:	e28d2014 	add	r2, sp, #20
    1abc:	e7c31002 	strb	r1, [r3, r2]
    1ac0:	e2833001 	add	r3, r3, #1
    1ac4:	e3530014 	cmp	r3, #20
    1ac8:	1afffff9 	bne	1ab4 <main+0x134>
    1acc:	e2447001 	sub	r7, r4, #1
    1ad0:	e28d3028 	add	r3, sp, #40	; 0x28
    1ad4:	e0834004 	add	r4, r3, r4
    1ad8:	e5449028 	strb	r9, [r4, #-40]	; 0xffffffd8
    1adc:	e59f0038 	ldr	r0, [pc, #56]	; 1b1c <main+0x19c>
    1ae0:	ebfffd3d 	bl	fdc <printf>
    1ae4:	e1a0000d 	mov	r0, sp
    1ae8:	ebfffa8e 	bl	528 <parse>
    1aec:	e59f002c 	ldr	r0, [pc, #44]	; 1b20 <main+0x1a0>
    1af0:	ebfffd39 	bl	fdc <printf>
    1af4:	e3a04000 	mov	r4, #0
    1af8:	eaffffb5 	b	19d4 <main+0x54>
    1afc:	e28d2028 	add	r2, sp, #40	; 0x28
    1b00:	e0823004 	add	r3, r2, r4
    1b04:	e5436028 	strb	r6, [r3, #-40]	; 0xffffffd8
    1b08:	e2844001 	add	r4, r4, #1
    1b0c:	eaffffde 	b	1a8c <main+0x10c>
    1b10:	00001ef6 	.word	0x00001ef6
    1b14:	00001f0f 	.word	0x00001f0f
    1b18:	00001f1e 	.word	0x00001f1e
    1b1c:	00001ece 	.word	0x00001ece
    1b20:	00001f24 	.word	0x00001f24
